
foo:     file format elf64-x86-64


Disassembly of section .init:

0000000000400a48 <_init>:
  400a48:	48 83 ec 08          	sub    $0x8,%rsp
  400a4c:	48 8b 05 a5 45 20 00 	mov    0x2045a5(%rip),%rax        # 604ff8 <_DYNAMIC+0x1f0>
  400a53:	48 85 c0             	test   %rax,%rax
  400a56:	74 05                	je     400a5d <_init+0x15>
  400a58:	e8 53 01 00 00       	callq  400bb0 <_Unwind_Resume@plt+0x10>
  400a5d:	48 83 c4 08          	add    $0x8,%rsp
  400a61:	c3                   	retq   

Disassembly of section .plt:

0000000000400a70 <std::ostream::operator<<(int)@plt-0x10>:
  400a70:	ff 35 92 45 20 00    	pushq  0x204592(%rip)        # 605008 <_GLOBAL_OFFSET_TABLE_+0x8>
  400a76:	ff 25 94 45 20 00    	jmpq   *0x204594(%rip)        # 605010 <_GLOBAL_OFFSET_TABLE_+0x10>
  400a7c:	0f 1f 40 00          	nopl   0x0(%rax)

0000000000400a80 <std::ostream::operator<<(int)@plt>:
  400a80:	ff 25 92 45 20 00    	jmpq   *0x204592(%rip)        # 605018 <_GLOBAL_OFFSET_TABLE_+0x18>
  400a86:	68 00 00 00 00       	pushq  $0x0
  400a8b:	e9 e0 ff ff ff       	jmpq   400a70 <_init+0x28>

0000000000400a90 <operator delete(void*)@plt>:
  400a90:	ff 25 8a 45 20 00    	jmpq   *0x20458a(%rip)        # 605020 <_GLOBAL_OFFSET_TABLE_+0x20>
  400a96:	68 01 00 00 00       	pushq  $0x1
  400a9b:	e9 d0 ff ff ff       	jmpq   400a70 <_init+0x28>

0000000000400aa0 <__cxa_rethrow@plt>:
  400aa0:	ff 25 82 45 20 00    	jmpq   *0x204582(%rip)        # 605028 <_GLOBAL_OFFSET_TABLE_+0x28>
  400aa6:	68 02 00 00 00       	pushq  $0x2
  400aab:	e9 c0 ff ff ff       	jmpq   400a70 <_init+0x28>

0000000000400ab0 <std::ios_base::Init::Init()@plt>:
  400ab0:	ff 25 7a 45 20 00    	jmpq   *0x20457a(%rip)        # 605030 <_GLOBAL_OFFSET_TABLE_+0x30>
  400ab6:	68 03 00 00 00       	pushq  $0x3
  400abb:	e9 b0 ff ff ff       	jmpq   400a70 <_init+0x28>

0000000000400ac0 <__libc_start_main@plt>:
  400ac0:	ff 25 72 45 20 00    	jmpq   *0x204572(%rip)        # 605038 <_GLOBAL_OFFSET_TABLE_+0x38>
  400ac6:	68 04 00 00 00       	pushq  $0x4
  400acb:	e9 a0 ff ff ff       	jmpq   400a70 <_init+0x28>

0000000000400ad0 <__cxa_atexit@plt>:
  400ad0:	ff 25 6a 45 20 00    	jmpq   *0x20456a(%rip)        # 605040 <_GLOBAL_OFFSET_TABLE_+0x40>
  400ad6:	68 05 00 00 00       	pushq  $0x5
  400adb:	e9 90 ff ff ff       	jmpq   400a70 <_init+0x28>

0000000000400ae0 <std::ios_base::Init::~Init()@plt>:
  400ae0:	ff 25 62 45 20 00    	jmpq   *0x204562(%rip)        # 605048 <_GLOBAL_OFFSET_TABLE_+0x48>
  400ae6:	68 06 00 00 00       	pushq  $0x6
  400aeb:	e9 80 ff ff ff       	jmpq   400a70 <_init+0x28>

0000000000400af0 <std::basic_ostream<char, std::char_traits<char> >& std::operator<< <std::char_traits<char> >(std::basic_ostream<char, std::char_traits<char> >&, char const*)@plt>:
  400af0:	ff 25 5a 45 20 00    	jmpq   *0x20455a(%rip)        # 605050 <_GLOBAL_OFFSET_TABLE_+0x50>
  400af6:	68 07 00 00 00       	pushq  $0x7
  400afb:	e9 70 ff ff ff       	jmpq   400a70 <_init+0x28>

0000000000400b00 <memmove@plt>:
  400b00:	ff 25 52 45 20 00    	jmpq   *0x204552(%rip)        # 605058 <_GLOBAL_OFFSET_TABLE_+0x58>
  400b06:	68 08 00 00 00       	pushq  $0x8
  400b0b:	e9 60 ff ff ff       	jmpq   400a70 <_init+0x28>

0000000000400b10 <__stack_chk_fail@plt>:
  400b10:	ff 25 4a 45 20 00    	jmpq   *0x20454a(%rip)        # 605060 <_GLOBAL_OFFSET_TABLE_+0x60>
  400b16:	68 09 00 00 00       	pushq  $0x9
  400b1b:	e9 50 ff ff ff       	jmpq   400a70 <_init+0x28>

0000000000400b20 <std::istream::operator>>(int&)@plt>:
  400b20:	ff 25 42 45 20 00    	jmpq   *0x204542(%rip)        # 605068 <_GLOBAL_OFFSET_TABLE_+0x68>
  400b26:	68 0a 00 00 00       	pushq  $0xa
  400b2b:	e9 40 ff ff ff       	jmpq   400a70 <_init+0x28>

0000000000400b30 <std::ostream::operator<<(std::ostream& (*)(std::ostream&))@plt>:
  400b30:	ff 25 3a 45 20 00    	jmpq   *0x20453a(%rip)        # 605070 <_GLOBAL_OFFSET_TABLE_+0x70>
  400b36:	68 0b 00 00 00       	pushq  $0xb
  400b3b:	e9 30 ff ff ff       	jmpq   400a70 <_init+0x28>

0000000000400b40 <__cxa_end_catch@plt>:
  400b40:	ff 25 32 45 20 00    	jmpq   *0x204532(%rip)        # 605078 <_GLOBAL_OFFSET_TABLE_+0x78>
  400b46:	68 0c 00 00 00       	pushq  $0xc
  400b4b:	e9 20 ff ff ff       	jmpq   400a70 <_init+0x28>

0000000000400b50 <std::__throw_bad_alloc()@plt>:
  400b50:	ff 25 2a 45 20 00    	jmpq   *0x20452a(%rip)        # 605080 <_GLOBAL_OFFSET_TABLE_+0x80>
  400b56:	68 0d 00 00 00       	pushq  $0xd
  400b5b:	e9 10 ff ff ff       	jmpq   400a70 <_init+0x28>

0000000000400b60 <std::basic_ostream<char, std::char_traits<char> >& std::endl<char, std::char_traits<char> >(std::basic_ostream<char, std::char_traits<char> >&)@plt>:
  400b60:	ff 25 22 45 20 00    	jmpq   *0x204522(%rip)        # 605088 <_GLOBAL_OFFSET_TABLE_+0x88>
  400b66:	68 0e 00 00 00       	pushq  $0xe
  400b6b:	e9 00 ff ff ff       	jmpq   400a70 <_init+0x28>

0000000000400b70 <__cxa_begin_catch@plt>:
  400b70:	ff 25 1a 45 20 00    	jmpq   *0x20451a(%rip)        # 605090 <_GLOBAL_OFFSET_TABLE_+0x90>
  400b76:	68 0f 00 00 00       	pushq  $0xf
  400b7b:	e9 f0 fe ff ff       	jmpq   400a70 <_init+0x28>

0000000000400b80 <__gxx_personality_v0@plt>:
  400b80:	ff 25 12 45 20 00    	jmpq   *0x204512(%rip)        # 605098 <_GLOBAL_OFFSET_TABLE_+0x98>
  400b86:	68 10 00 00 00       	pushq  $0x10
  400b8b:	e9 e0 fe ff ff       	jmpq   400a70 <_init+0x28>

0000000000400b90 <operator new(unsigned long)@plt>:
  400b90:	ff 25 0a 45 20 00    	jmpq   *0x20450a(%rip)        # 6050a0 <_GLOBAL_OFFSET_TABLE_+0xa0>
  400b96:	68 11 00 00 00       	pushq  $0x11
  400b9b:	e9 d0 fe ff ff       	jmpq   400a70 <_init+0x28>

0000000000400ba0 <_Unwind_Resume@plt>:
  400ba0:	ff 25 02 45 20 00    	jmpq   *0x204502(%rip)        # 6050a8 <_GLOBAL_OFFSET_TABLE_+0xa8>
  400ba6:	68 12 00 00 00       	pushq  $0x12
  400bab:	e9 c0 fe ff ff       	jmpq   400a70 <_init+0x28>

Disassembly of section .plt.got:

0000000000400bb0 <.plt.got>:
  400bb0:	ff 25 42 44 20 00    	jmpq   *0x204442(%rip)        # 604ff8 <_DYNAMIC+0x1f0>
  400bb6:	66 90                	xchg   %ax,%ax

Disassembly of section .text:

0000000000400bc0 <_start>:
  400bc0:	31 ed                	xor    %ebp,%ebp
  400bc2:	49 89 d1             	mov    %rdx,%r9
  400bc5:	5e                   	pop    %rsi
  400bc6:	48 89 e2             	mov    %rsp,%rdx
  400bc9:	48 83 e4 f0          	and    $0xfffffffffffffff0,%rsp
  400bcd:	50                   	push   %rax
  400bce:	54                   	push   %rsp
  400bcf:	49 c7 c0 00 2a 40 00 	mov    $0x402a00,%r8
  400bd6:	48 c7 c1 90 29 40 00 	mov    $0x402990,%rcx
  400bdd:	48 c7 c7 b6 0c 40 00 	mov    $0x400cb6,%rdi
  400be4:	e8 d7 fe ff ff       	callq  400ac0 <__libc_start_main@plt>
  400be9:	f4                   	hlt    
  400bea:	66 0f 1f 44 00 00    	nopw   0x0(%rax,%rax,1)

0000000000400bf0 <deregister_tm_clones>:
  400bf0:	b8 c7 50 60 00       	mov    $0x6050c7,%eax
  400bf5:	55                   	push   %rbp
  400bf6:	48 2d c0 50 60 00    	sub    $0x6050c0,%rax
  400bfc:	48 83 f8 0e          	cmp    $0xe,%rax
  400c00:	48 89 e5             	mov    %rsp,%rbp
  400c03:	76 1b                	jbe    400c20 <deregister_tm_clones+0x30>
  400c05:	b8 00 00 00 00       	mov    $0x0,%eax
  400c0a:	48 85 c0             	test   %rax,%rax
  400c0d:	74 11                	je     400c20 <deregister_tm_clones+0x30>
  400c0f:	5d                   	pop    %rbp
  400c10:	bf c0 50 60 00       	mov    $0x6050c0,%edi
  400c15:	ff e0                	jmpq   *%rax
  400c17:	66 0f 1f 84 00 00 00 	nopw   0x0(%rax,%rax,1)
  400c1e:	00 00 
  400c20:	5d                   	pop    %rbp
  400c21:	c3                   	retq   
  400c22:	0f 1f 40 00          	nopl   0x0(%rax)
  400c26:	66 2e 0f 1f 84 00 00 	nopw   %cs:0x0(%rax,%rax,1)
  400c2d:	00 00 00 

0000000000400c30 <register_tm_clones>:
  400c30:	be c0 50 60 00       	mov    $0x6050c0,%esi
  400c35:	55                   	push   %rbp
  400c36:	48 81 ee c0 50 60 00 	sub    $0x6050c0,%rsi
  400c3d:	48 c1 fe 03          	sar    $0x3,%rsi
  400c41:	48 89 e5             	mov    %rsp,%rbp
  400c44:	48 89 f0             	mov    %rsi,%rax
  400c47:	48 c1 e8 3f          	shr    $0x3f,%rax
  400c4b:	48 01 c6             	add    %rax,%rsi
  400c4e:	48 d1 fe             	sar    %rsi
  400c51:	74 15                	je     400c68 <register_tm_clones+0x38>
  400c53:	b8 00 00 00 00       	mov    $0x0,%eax
  400c58:	48 85 c0             	test   %rax,%rax
  400c5b:	74 0b                	je     400c68 <register_tm_clones+0x38>
  400c5d:	5d                   	pop    %rbp
  400c5e:	bf c0 50 60 00       	mov    $0x6050c0,%edi
  400c63:	ff e0                	jmpq   *%rax
  400c65:	0f 1f 00             	nopl   (%rax)
  400c68:	5d                   	pop    %rbp
  400c69:	c3                   	retq   
  400c6a:	66 0f 1f 44 00 00    	nopw   0x0(%rax,%rax,1)

0000000000400c70 <__do_global_dtors_aux>:
  400c70:	80 3d 79 46 20 00 00 	cmpb   $0x0,0x204679(%rip)        # 6052f0 <completed.7594>
  400c77:	75 11                	jne    400c8a <__do_global_dtors_aux+0x1a>
  400c79:	55                   	push   %rbp
  400c7a:	48 89 e5             	mov    %rsp,%rbp
  400c7d:	e8 6e ff ff ff       	callq  400bf0 <deregister_tm_clones>
  400c82:	5d                   	pop    %rbp
  400c83:	c6 05 66 46 20 00 01 	movb   $0x1,0x204666(%rip)        # 6052f0 <completed.7594>
  400c8a:	f3 c3                	repz retq 
  400c8c:	0f 1f 40 00          	nopl   0x0(%rax)

0000000000400c90 <frame_dummy>:
  400c90:	bf 00 4e 60 00       	mov    $0x604e00,%edi
  400c95:	48 83 3f 00          	cmpq   $0x0,(%rdi)
  400c99:	75 05                	jne    400ca0 <frame_dummy+0x10>
  400c9b:	eb 93                	jmp    400c30 <register_tm_clones>
  400c9d:	0f 1f 00             	nopl   (%rax)
  400ca0:	b8 00 00 00 00       	mov    $0x0,%eax
  400ca5:	48 85 c0             	test   %rax,%rax
  400ca8:	74 f1                	je     400c9b <frame_dummy+0xb>
  400caa:	55                   	push   %rbp
  400cab:	48 89 e5             	mov    %rsp,%rbp
  400cae:	ff d0                	callq  *%rax
  400cb0:	5d                   	pop    %rbp
  400cb1:	e9 7a ff ff ff       	jmpq   400c30 <register_tm_clones>

0000000000400cb6 <main>:
  400cb6:	55                   	push   %rbp
  400cb7:	48 89 e5             	mov    %rsp,%rbp
  400cba:	41 55                	push   %r13
  400cbc:	41 54                	push   %r12
  400cbe:	53                   	push   %rbx
  400cbf:	48 83 ec 78          	sub    $0x78,%rsp
  400cc3:	64 48 8b 04 25 28 00 	mov    %fs:0x28,%rax
  400cca:	00 00 
  400ccc:	48 89 45 d8          	mov    %rax,-0x28(%rbp)
  400cd0:	31 c0                	xor    %eax,%eax
  400cd2:	c7 85 7c ff ff ff 0a 	movl   $0xa,-0x84(%rbp)
  400cd9:	00 00 00 
  400cdc:	41 bc 20 2a 40 00    	mov    $0x402a20,%r12d
  400ce2:	41 bd 03 00 00 00    	mov    $0x3,%r13d
  400ce8:	48 8d 45 c0          	lea    -0x40(%rbp),%rax
  400cec:	48 89 c7             	mov    %rax,%rdi
  400cef:	e8 40 02 00 00       	callq  400f34 <std::allocator<int>::allocator()>
  400cf4:	48 8d 55 c0          	lea    -0x40(%rbp),%rdx
  400cf8:	4c 89 e6             	mov    %r12,%rsi
  400cfb:	4c 89 ef             	mov    %r13,%rdi
  400cfe:	4c 89 e1             	mov    %r12,%rcx
  400d01:	4c 89 eb             	mov    %r13,%rbx
  400d04:	48 89 df             	mov    %rbx,%rdi
  400d07:	48 8d 45 80          	lea    -0x80(%rbp),%rax
  400d0b:	48 89 d1             	mov    %rdx,%rcx
  400d0e:	48 89 fa             	mov    %rdi,%rdx
  400d11:	48 89 c7             	mov    %rax,%rdi
  400d14:	e8 ad 02 00 00       	callq  400fc6 <std::vector<int, std::allocator<int> >::vector(std::initializer_list<int>, std::allocator<int> const&)>
  400d19:	48 8d 45 c0          	lea    -0x40(%rbp),%rax
  400d1d:	48 89 c7             	mov    %rax,%rdi
  400d20:	e8 2b 02 00 00       	callq  400f50 <std::allocator<int>::~allocator()>
  400d25:	48 8d 45 c0          	lea    -0x40(%rbp),%rax
  400d29:	48 89 c7             	mov    %rax,%rdi
  400d2c:	e8 03 02 00 00       	callq  400f34 <std::allocator<int>::allocator()>
  400d31:	48 8d 55 c0          	lea    -0x40(%rbp),%rdx
  400d35:	48 8d 45 a0          	lea    -0x60(%rbp),%rax
  400d39:	be 03 00 00 00       	mov    $0x3,%esi
  400d3e:	48 89 c7             	mov    %rax,%rdi
  400d41:	e8 7e 03 00 00       	callq  4010c4 <std::vector<int, std::allocator<int> >::vector(unsigned long, std::allocator<int> const&)>
  400d46:	48 8d 45 c0          	lea    -0x40(%rbp),%rax
  400d4a:	48 89 c7             	mov    %rax,%rdi
  400d4d:	e8 fe 01 00 00       	callq  400f50 <std::allocator<int>::~allocator()>
  400d52:	48 8d 45 a0          	lea    -0x60(%rbp),%rax
  400d56:	be 02 00 00 00       	mov    $0x2,%esi
  400d5b:	48 89 c7             	mov    %rax,%rdi
  400d5e:	e8 c3 03 00 00       	callq  401126 <std::vector<int, std::allocator<int> >::operator[](unsigned long)>
  400d63:	48 89 c3             	mov    %rax,%rbx
  400d66:	48 8d 45 a0          	lea    -0x60(%rbp),%rax
  400d6a:	be 01 00 00 00       	mov    $0x1,%esi
  400d6f:	48 89 c7             	mov    %rax,%rdi
  400d72:	e8 af 03 00 00       	callq  401126 <std::vector<int, std::allocator<int> >::operator[](unsigned long)>
  400d77:	49 89 c4             	mov    %rax,%r12
  400d7a:	48 8d 45 a0          	lea    -0x60(%rbp),%rax
  400d7e:	be 00 00 00 00       	mov    $0x0,%esi
  400d83:	48 89 c7             	mov    %rax,%rdi
  400d86:	e8 9b 03 00 00       	callq  401126 <std::vector<int, std::allocator<int> >::operator[](unsigned long)>
  400d8b:	48 89 c6             	mov    %rax,%rsi
  400d8e:	bf c0 50 60 00       	mov    $0x6050c0,%edi
  400d93:	e8 88 fd ff ff       	callq  400b20 <std::istream::operator>>(int&)@plt>
  400d98:	4c 89 e6             	mov    %r12,%rsi
  400d9b:	48 89 c7             	mov    %rax,%rdi
  400d9e:	e8 7d fd ff ff       	callq  400b20 <std::istream::operator>>(int&)@plt>
  400da3:	48 89 de             	mov    %rbx,%rsi
  400da6:	48 89 c7             	mov    %rax,%rdi
  400da9:	e8 72 fd ff ff       	callq  400b20 <std::istream::operator>>(int&)@plt>
  400dae:	48 8d 85 7c ff ff ff 	lea    -0x84(%rbp),%rax
  400db5:	be 07 00 00 00       	mov    $0x7,%esi
  400dba:	48 89 c7             	mov    %rax,%rdi
  400dbd:	e8 84 03 00 00       	callq  401146 <bool setmin<int>(int&, int)>
  400dc2:	84 c0                	test   %al,%al
  400dc4:	74 1f                	je     400de5 <main+0x12f>
  400dc6:	8b 85 7c ff ff ff    	mov    -0x84(%rbp),%eax
  400dcc:	89 c6                	mov    %eax,%esi
  400dce:	bf e0 51 60 00       	mov    $0x6051e0,%edi
  400dd3:	e8 a8 fc ff ff       	callq  400a80 <std::ostream::operator<<(int)@plt>
  400dd8:	be 60 0b 40 00       	mov    $0x400b60,%esi
  400ddd:	48 89 c7             	mov    %rax,%rdi
  400de0:	e8 4b fd ff ff       	callq  400b30 <std::ostream::operator<<(std::ostream& (*)(std::ostream&))@plt>
  400de5:	48 8d 55 a0          	lea    -0x60(%rbp),%rdx
  400de9:	48 8d 45 c0          	lea    -0x40(%rbp),%rax
  400ded:	48 89 d6             	mov    %rdx,%rsi
  400df0:	48 89 c7             	mov    %rax,%rdi
  400df3:	e8 7c 03 00 00       	callq  401174 <std::vector<int, std::allocator<int> >::vector(std::vector<int, std::allocator<int> > const&)>
  400df8:	48 8d 55 c0          	lea    -0x40(%rbp),%rdx
  400dfc:	48 8d 45 80          	lea    -0x80(%rbp),%rax
  400e00:	48 89 d6             	mov    %rdx,%rsi
  400e03:	48 89 c7             	mov    %rax,%rdi
  400e06:	e8 7c 04 00 00       	callq  401287 <bool setmin<std::vector<int, std::allocator<int> > >(std::vector<int, std::allocator<int> >&, std::vector<int, std::allocator<int> >)>
  400e0b:	89 c3                	mov    %eax,%ebx
  400e0d:	48 8d 45 c0          	lea    -0x40(%rbp),%rax
  400e11:	48 89 c7             	mov    %rax,%rdi
  400e14:	e8 67 02 00 00       	callq  401080 <std::vector<int, std::allocator<int> >::~vector()>
  400e19:	84 db                	test   %bl,%bl
  400e1b:	74 1c                	je     400e39 <main+0x183>
  400e1d:	be 19 2a 40 00       	mov    $0x402a19,%esi
  400e22:	bf e0 51 60 00       	mov    $0x6051e0,%edi
  400e27:	e8 c4 fc ff ff       	callq  400af0 <std::basic_ostream<char, std::char_traits<char> >& std::operator<< <std::char_traits<char> >(std::basic_ostream<char, std::char_traits<char> >&, char const*)@plt>
  400e2c:	be 60 0b 40 00       	mov    $0x400b60,%esi
  400e31:	48 89 c7             	mov    %rax,%rdi
  400e34:	e8 f7 fc ff ff       	callq  400b30 <std::ostream::operator<<(std::ostream& (*)(std::ostream&))@plt>
  400e39:	bb 00 00 00 00       	mov    $0x0,%ebx
  400e3e:	48 8d 45 a0          	lea    -0x60(%rbp),%rax
  400e42:	48 89 c7             	mov    %rax,%rdi
  400e45:	e8 36 02 00 00       	callq  401080 <std::vector<int, std::allocator<int> >::~vector()>
  400e4a:	48 8d 45 80          	lea    -0x80(%rbp),%rax
  400e4e:	48 89 c7             	mov    %rax,%rdi
  400e51:	e8 2a 02 00 00       	callq  401080 <std::vector<int, std::allocator<int> >::~vector()>
  400e56:	89 d8                	mov    %ebx,%eax
  400e58:	48 8b 4d d8          	mov    -0x28(%rbp),%rcx
  400e5c:	64 48 33 0c 25 28 00 	xor    %fs:0x28,%rcx
  400e63:	00 00 
  400e65:	74 69                	je     400ed0 <main+0x21a>
  400e67:	eb 62                	jmp    400ecb <main+0x215>
  400e69:	48 89 c3             	mov    %rax,%rbx
  400e6c:	48 8d 45 c0          	lea    -0x40(%rbp),%rax
  400e70:	48 89 c7             	mov    %rax,%rdi
  400e73:	e8 d8 00 00 00       	callq  400f50 <std::allocator<int>::~allocator()>
  400e78:	48 89 d8             	mov    %rbx,%rax
  400e7b:	48 89 c7             	mov    %rax,%rdi
  400e7e:	e8 1d fd ff ff       	callq  400ba0 <_Unwind_Resume@plt>
  400e83:	48 89 c3             	mov    %rax,%rbx
  400e86:	48 8d 45 c0          	lea    -0x40(%rbp),%rax
  400e8a:	48 89 c7             	mov    %rax,%rdi
  400e8d:	e8 be 00 00 00       	callq  400f50 <std::allocator<int>::~allocator()>
  400e92:	eb 20                	jmp    400eb4 <main+0x1fe>
  400e94:	48 89 c3             	mov    %rax,%rbx
  400e97:	48 8d 45 c0          	lea    -0x40(%rbp),%rax
  400e9b:	48 89 c7             	mov    %rax,%rdi
  400e9e:	e8 dd 01 00 00       	callq  401080 <std::vector<int, std::allocator<int> >::~vector()>
  400ea3:	eb 03                	jmp    400ea8 <main+0x1f2>
  400ea5:	48 89 c3             	mov    %rax,%rbx
  400ea8:	48 8d 45 a0          	lea    -0x60(%rbp),%rax
  400eac:	48 89 c7             	mov    %rax,%rdi
  400eaf:	e8 cc 01 00 00       	callq  401080 <std::vector<int, std::allocator<int> >::~vector()>
  400eb4:	48 8d 45 80          	lea    -0x80(%rbp),%rax
  400eb8:	48 89 c7             	mov    %rax,%rdi
  400ebb:	e8 c0 01 00 00       	callq  401080 <std::vector<int, std::allocator<int> >::~vector()>
  400ec0:	48 89 d8             	mov    %rbx,%rax
  400ec3:	48 89 c7             	mov    %rax,%rdi
  400ec6:	e8 d5 fc ff ff       	callq  400ba0 <_Unwind_Resume@plt>
  400ecb:	e8 40 fc ff ff       	callq  400b10 <__stack_chk_fail@plt>
  400ed0:	48 83 c4 78          	add    $0x78,%rsp
  400ed4:	5b                   	pop    %rbx
  400ed5:	41 5c                	pop    %r12
  400ed7:	41 5d                	pop    %r13
  400ed9:	5d                   	pop    %rbp
  400eda:	c3                   	retq   

0000000000400edb <__static_initialization_and_destruction_0(int, int)>:
  400edb:	55                   	push   %rbp
  400edc:	48 89 e5             	mov    %rsp,%rbp
  400edf:	48 83 ec 10          	sub    $0x10,%rsp
  400ee3:	89 7d fc             	mov    %edi,-0x4(%rbp)
  400ee6:	89 75 f8             	mov    %esi,-0x8(%rbp)
  400ee9:	83 7d fc 01          	cmpl   $0x1,-0x4(%rbp)
  400eed:	75 27                	jne    400f16 <__static_initialization_and_destruction_0(int, int)+0x3b>
  400eef:	81 7d f8 ff ff 00 00 	cmpl   $0xffff,-0x8(%rbp)
  400ef6:	75 1e                	jne    400f16 <__static_initialization_and_destruction_0(int, int)+0x3b>
  400ef8:	bf f1 52 60 00       	mov    $0x6052f1,%edi
  400efd:	e8 ae fb ff ff       	callq  400ab0 <std::ios_base::Init::Init()@plt>
  400f02:	ba b8 50 60 00       	mov    $0x6050b8,%edx
  400f07:	be f1 52 60 00       	mov    $0x6052f1,%esi
  400f0c:	bf e0 0a 40 00       	mov    $0x400ae0,%edi
  400f11:	e8 ba fb ff ff       	callq  400ad0 <__cxa_atexit@plt>
  400f16:	90                   	nop
  400f17:	c9                   	leaveq 
  400f18:	c3                   	retq   

0000000000400f19 <_GLOBAL__sub_I_main>:
  400f19:	55                   	push   %rbp
  400f1a:	48 89 e5             	mov    %rsp,%rbp
  400f1d:	be ff ff 00 00       	mov    $0xffff,%esi
  400f22:	bf 01 00 00 00       	mov    $0x1,%edi
  400f27:	e8 af ff ff ff       	callq  400edb <__static_initialization_and_destruction_0(int, int)>
  400f2c:	5d                   	pop    %rbp
  400f2d:	c3                   	retq   

0000000000400f2e <__gnu_cxx::__ops::__iter_less_iter()>:
  400f2e:	55                   	push   %rbp
  400f2f:	48 89 e5             	mov    %rsp,%rbp
  400f32:	5d                   	pop    %rbp
  400f33:	c3                   	retq   

0000000000400f34 <std::allocator<int>::allocator()>:
  400f34:	55                   	push   %rbp
  400f35:	48 89 e5             	mov    %rsp,%rbp
  400f38:	48 83 ec 10          	sub    $0x10,%rsp
  400f3c:	48 89 7d f8          	mov    %rdi,-0x8(%rbp)
  400f40:	48 8b 45 f8          	mov    -0x8(%rbp),%rax
  400f44:	48 89 c7             	mov    %rax,%rdi
  400f47:	e8 84 03 00 00       	callq  4012d0 <__gnu_cxx::new_allocator<int>::new_allocator()>
  400f4c:	90                   	nop
  400f4d:	c9                   	leaveq 
  400f4e:	c3                   	retq   
  400f4f:	90                   	nop

0000000000400f50 <std::allocator<int>::~allocator()>:
  400f50:	55                   	push   %rbp
  400f51:	48 89 e5             	mov    %rsp,%rbp
  400f54:	48 83 ec 10          	sub    $0x10,%rsp
  400f58:	48 89 7d f8          	mov    %rdi,-0x8(%rbp)
  400f5c:	48 8b 45 f8          	mov    -0x8(%rbp),%rax
  400f60:	48 89 c7             	mov    %rax,%rdi
  400f63:	e8 74 03 00 00       	callq  4012dc <__gnu_cxx::new_allocator<int>::~new_allocator()>
  400f68:	90                   	nop
  400f69:	c9                   	leaveq 
  400f6a:	c3                   	retq   
  400f6b:	90                   	nop

0000000000400f6c <std::initializer_list<int>::begin() const>:
  400f6c:	55                   	push   %rbp
  400f6d:	48 89 e5             	mov    %rsp,%rbp
  400f70:	48 89 7d f8          	mov    %rdi,-0x8(%rbp)
  400f74:	48 8b 45 f8          	mov    -0x8(%rbp),%rax
  400f78:	48 8b 00             	mov    (%rax),%rax
  400f7b:	5d                   	pop    %rbp
  400f7c:	c3                   	retq   
  400f7d:	90                   	nop

0000000000400f7e <std::initializer_list<int>::size() const>:
  400f7e:	55                   	push   %rbp
  400f7f:	48 89 e5             	mov    %rsp,%rbp
  400f82:	48 89 7d f8          	mov    %rdi,-0x8(%rbp)
  400f86:	48 8b 45 f8          	mov    -0x8(%rbp),%rax
  400f8a:	48 8b 40 08          	mov    0x8(%rax),%rax
  400f8e:	5d                   	pop    %rbp
  400f8f:	c3                   	retq   

0000000000400f90 <std::initializer_list<int>::end() const>:
  400f90:	55                   	push   %rbp
  400f91:	48 89 e5             	mov    %rsp,%rbp
  400f94:	53                   	push   %rbx
  400f95:	48 83 ec 18          	sub    $0x18,%rsp
  400f99:	48 89 7d e8          	mov    %rdi,-0x18(%rbp)
  400f9d:	48 8b 45 e8          	mov    -0x18(%rbp),%rax
  400fa1:	48 89 c7             	mov    %rax,%rdi
  400fa4:	e8 c3 ff ff ff       	callq  400f6c <std::initializer_list<int>::begin() const>
  400fa9:	48 89 c3             	mov    %rax,%rbx
  400fac:	48 8b 45 e8          	mov    -0x18(%rbp),%rax
  400fb0:	48 89 c7             	mov    %rax,%rdi
  400fb3:	e8 c6 ff ff ff       	callq  400f7e <std::initializer_list<int>::size() const>
  400fb8:	48 c1 e0 02          	shl    $0x2,%rax
  400fbc:	48 01 d8             	add    %rbx,%rax
  400fbf:	48 83 c4 18          	add    $0x18,%rsp
  400fc3:	5b                   	pop    %rbx
  400fc4:	5d                   	pop    %rbp
  400fc5:	c3                   	retq   

0000000000400fc6 <std::vector<int, std::allocator<int> >::vector(std::initializer_list<int>, std::allocator<int> const&)>:
  400fc6:	55                   	push   %rbp
  400fc7:	48 89 e5             	mov    %rsp,%rbp
  400fca:	41 54                	push   %r12
  400fcc:	53                   	push   %rbx
  400fcd:	48 83 ec 30          	sub    $0x30,%rsp
  400fd1:	48 89 7d d8          	mov    %rdi,-0x28(%rbp)
  400fd5:	48 89 f0             	mov    %rsi,%rax
  400fd8:	48 89 d6             	mov    %rdx,%rsi
  400fdb:	48 89 f2             	mov    %rsi,%rdx
  400fde:	48 89 45 c0          	mov    %rax,-0x40(%rbp)
  400fe2:	48 89 55 c8          	mov    %rdx,-0x38(%rbp)
  400fe6:	48 89 4d d0          	mov    %rcx,-0x30(%rbp)
  400fea:	64 48 8b 04 25 28 00 	mov    %fs:0x28,%rax
  400ff1:	00 00 
  400ff3:	48 89 45 e8          	mov    %rax,-0x18(%rbp)
  400ff7:	31 c0                	xor    %eax,%eax
  400ff9:	48 8b 45 d8          	mov    -0x28(%rbp),%rax
  400ffd:	48 8b 55 d0          	mov    -0x30(%rbp),%rdx
  401001:	48 89 d6             	mov    %rdx,%rsi
  401004:	48 89 c7             	mov    %rax,%rdi
  401007:	e8 f8 02 00 00       	callq  401304 <std::_Vector_base<int, std::allocator<int> >::_Vector_base(std::allocator<int> const&)>
  40100c:	48 8d 45 c0          	lea    -0x40(%rbp),%rax
  401010:	48 89 c7             	mov    %rax,%rdi
  401013:	e8 78 ff ff ff       	callq  400f90 <std::initializer_list<int>::end() const>
  401018:	48 89 c3             	mov    %rax,%rbx
  40101b:	48 8d 45 c0          	lea    -0x40(%rbp),%rax
  40101f:	48 89 c7             	mov    %rax,%rdi
  401022:	e8 45 ff ff ff       	callq  400f6c <std::initializer_list<int>::begin() const>
  401027:	48 89 c1             	mov    %rax,%rcx
  40102a:	48 8b 45 d8          	mov    -0x28(%rbp),%rax
  40102e:	48 83 ec 08          	sub    $0x8,%rsp
  401032:	41 54                	push   %r12
  401034:	48 89 da             	mov    %rbx,%rdx
  401037:	48 89 ce             	mov    %rcx,%rsi
  40103a:	48 89 c7             	mov    %rax,%rdi
  40103d:	e8 38 03 00 00       	callq  40137a <void std::vector<int, std::allocator<int> >::_M_range_initialize<int const*>(int const*, int const*, std::forward_iterator_tag)>
  401042:	48 83 c4 10          	add    $0x10,%rsp
  401046:	90                   	nop
  401047:	48 8b 45 e8          	mov    -0x18(%rbp),%rax
  40104b:	64 48 33 04 25 28 00 	xor    %fs:0x28,%rax
  401052:	00 00 
  401054:	74 21                	je     401077 <std::vector<int, std::allocator<int> >::vector(std::initializer_list<int>, std::allocator<int> const&)+0xb1>
  401056:	eb 1a                	jmp    401072 <std::vector<int, std::allocator<int> >::vector(std::initializer_list<int>, std::allocator<int> const&)+0xac>
  401058:	48 89 c3             	mov    %rax,%rbx
  40105b:	48 8b 45 d8          	mov    -0x28(%rbp),%rax
  40105f:	48 89 c7             	mov    %rax,%rdi
  401062:	e8 c3 02 00 00       	callq  40132a <std::_Vector_base<int, std::allocator<int> >::~_Vector_base()>
  401067:	48 89 d8             	mov    %rbx,%rax
  40106a:	48 89 c7             	mov    %rax,%rdi
  40106d:	e8 2e fb ff ff       	callq  400ba0 <_Unwind_Resume@plt>
  401072:	e8 99 fa ff ff       	callq  400b10 <__stack_chk_fail@plt>
  401077:	48 8d 65 f0          	lea    -0x10(%rbp),%rsp
  40107b:	5b                   	pop    %rbx
  40107c:	41 5c                	pop    %r12
  40107e:	5d                   	pop    %rbp
  40107f:	c3                   	retq   

0000000000401080 <std::vector<int, std::allocator<int> >::~vector()>:
  401080:	55                   	push   %rbp
  401081:	48 89 e5             	mov    %rsp,%rbp
  401084:	48 83 ec 10          	sub    $0x10,%rsp
  401088:	48 89 7d f8          	mov    %rdi,-0x8(%rbp)
  40108c:	48 8b 45 f8          	mov    -0x8(%rbp),%rax
  401090:	48 89 c7             	mov    %rax,%rdi
  401093:	e8 78 03 00 00       	callq  401410 <std::_Vector_base<int, std::allocator<int> >::_M_get_Tp_allocator()>
  401098:	48 89 c2             	mov    %rax,%rdx
  40109b:	48 8b 45 f8          	mov    -0x8(%rbp),%rax
  40109f:	48 8b 48 08          	mov    0x8(%rax),%rcx
  4010a3:	48 8b 45 f8          	mov    -0x8(%rbp),%rax
  4010a7:	48 8b 00             	mov    (%rax),%rax
  4010aa:	48 89 ce             	mov    %rcx,%rsi
  4010ad:	48 89 c7             	mov    %rax,%rdi
  4010b0:	e8 69 03 00 00       	callq  40141e <void std::_Destroy<int*, int>(int*, int*, std::allocator<int>&)>
  4010b5:	48 8b 45 f8          	mov    -0x8(%rbp),%rax
  4010b9:	48 89 c7             	mov    %rax,%rdi
  4010bc:	e8 69 02 00 00       	callq  40132a <std::_Vector_base<int, std::allocator<int> >::~_Vector_base()>
  4010c1:	90                   	nop
  4010c2:	c9                   	leaveq 
  4010c3:	c3                   	retq   

00000000004010c4 <std::vector<int, std::allocator<int> >::vector(unsigned long, std::allocator<int> const&)>:
  4010c4:	55                   	push   %rbp
  4010c5:	48 89 e5             	mov    %rsp,%rbp
  4010c8:	53                   	push   %rbx
  4010c9:	48 83 ec 28          	sub    $0x28,%rsp
  4010cd:	48 89 7d e8          	mov    %rdi,-0x18(%rbp)
  4010d1:	48 89 75 e0          	mov    %rsi,-0x20(%rbp)
  4010d5:	48 89 55 d8          	mov    %rdx,-0x28(%rbp)
  4010d9:	48 8b 45 e8          	mov    -0x18(%rbp),%rax
  4010dd:	48 8b 55 d8          	mov    -0x28(%rbp),%rdx
  4010e1:	48 8b 4d e0          	mov    -0x20(%rbp),%rcx
  4010e5:	48 89 ce             	mov    %rcx,%rsi
  4010e8:	48 89 c7             	mov    %rax,%rdi
  4010eb:	e8 58 03 00 00       	callq  401448 <std::_Vector_base<int, std::allocator<int> >::_Vector_base(unsigned long, std::allocator<int> const&)>
  4010f0:	48 8b 55 e0          	mov    -0x20(%rbp),%rdx
  4010f4:	48 8b 45 e8          	mov    -0x18(%rbp),%rax
  4010f8:	48 89 d6             	mov    %rdx,%rsi
  4010fb:	48 89 c7             	mov    %rax,%rdi
  4010fe:	e8 a3 03 00 00       	callq  4014a6 <std::vector<int, std::allocator<int> >::_M_default_initialize(unsigned long)>
  401103:	eb 1a                	jmp    40111f <std::vector<int, std::allocator<int> >::vector(unsigned long, std::allocator<int> const&)+0x5b>
  401105:	48 89 c3             	mov    %rax,%rbx
  401108:	48 8b 45 e8          	mov    -0x18(%rbp),%rax
  40110c:	48 89 c7             	mov    %rax,%rdi
  40110f:	e8 16 02 00 00       	callq  40132a <std::_Vector_base<int, std::allocator<int> >::~_Vector_base()>
  401114:	48 89 d8             	mov    %rbx,%rax
  401117:	48 89 c7             	mov    %rax,%rdi
  40111a:	e8 81 fa ff ff       	callq  400ba0 <_Unwind_Resume@plt>
  40111f:	48 83 c4 28          	add    $0x28,%rsp
  401123:	5b                   	pop    %rbx
  401124:	5d                   	pop    %rbp
  401125:	c3                   	retq   

0000000000401126 <std::vector<int, std::allocator<int> >::operator[](unsigned long)>:
  401126:	55                   	push   %rbp
  401127:	48 89 e5             	mov    %rsp,%rbp
  40112a:	48 89 7d f8          	mov    %rdi,-0x8(%rbp)
  40112e:	48 89 75 f0          	mov    %rsi,-0x10(%rbp)
  401132:	48 8b 45 f8          	mov    -0x8(%rbp),%rax
  401136:	48 8b 00             	mov    (%rax),%rax
  401139:	48 8b 55 f0          	mov    -0x10(%rbp),%rdx
  40113d:	48 c1 e2 02          	shl    $0x2,%rdx
  401141:	48 01 d0             	add    %rdx,%rax
  401144:	5d                   	pop    %rbp
  401145:	c3                   	retq   

0000000000401146 <bool setmin<int>(int&, int)>:
  401146:	55                   	push   %rbp
  401147:	48 89 e5             	mov    %rsp,%rbp
  40114a:	48 89 7d f8          	mov    %rdi,-0x8(%rbp)
  40114e:	89 75 f4             	mov    %esi,-0xc(%rbp)
  401151:	48 8b 45 f8          	mov    -0x8(%rbp),%rax
  401155:	8b 00                	mov    (%rax),%eax
  401157:	3b 45 f4             	cmp    -0xc(%rbp),%eax
  40115a:	7e 10                	jle    40116c <bool setmin<int>(int&, int)+0x26>
  40115c:	48 8b 45 f8          	mov    -0x8(%rbp),%rax
  401160:	8b 55 f4             	mov    -0xc(%rbp),%edx
  401163:	89 10                	mov    %edx,(%rax)
  401165:	b8 01 00 00 00       	mov    $0x1,%eax
  40116a:	eb 05                	jmp    401171 <bool setmin<int>(int&, int)+0x2b>
  40116c:	b8 00 00 00 00       	mov    $0x0,%eax
  401171:	5d                   	pop    %rbp
  401172:	c3                   	retq   
  401173:	90                   	nop

0000000000401174 <std::vector<int, std::allocator<int> >::vector(std::vector<int, std::allocator<int> > const&)>:
  401174:	55                   	push   %rbp
  401175:	48 89 e5             	mov    %rsp,%rbp
  401178:	41 55                	push   %r13
  40117a:	41 54                	push   %r12
  40117c:	53                   	push   %rbx
  40117d:	48 83 ec 28          	sub    $0x28,%rsp
  401181:	48 89 7d c8          	mov    %rdi,-0x38(%rbp)
  401185:	48 89 75 c0          	mov    %rsi,-0x40(%rbp)
  401189:	64 48 8b 04 25 28 00 	mov    %fs:0x28,%rax
  401190:	00 00 
  401192:	48 89 45 d8          	mov    %rax,-0x28(%rbp)
  401196:	31 c0                	xor    %eax,%eax
  401198:	48 8b 45 c0          	mov    -0x40(%rbp),%rax
  40119c:	48 89 c7             	mov    %rax,%rdi
  40119f:	e8 b8 03 00 00       	callq  40155c <std::_Vector_base<int, std::allocator<int> >::_M_get_Tp_allocator() const>
  4011a4:	48 89 c2             	mov    %rax,%rdx
  4011a7:	48 8d 45 d7          	lea    -0x29(%rbp),%rax
  4011ab:	48 89 d6             	mov    %rdx,%rsi
  4011ae:	48 89 c7             	mov    %rax,%rdi
  4011b1:	e8 5a 03 00 00       	callq  401510 <__gnu_cxx::__alloc_traits<std::allocator<int> >::_S_select_on_copy(std::allocator<int> const&)>
  4011b6:	48 8b 45 c0          	mov    -0x40(%rbp),%rax
  4011ba:	48 89 c7             	mov    %rax,%rdi
  4011bd:	e8 28 03 00 00       	callq  4014ea <std::vector<int, std::allocator<int> >::size() const>
  4011c2:	48 89 c1             	mov    %rax,%rcx
  4011c5:	48 8b 45 c8          	mov    -0x38(%rbp),%rax
  4011c9:	48 8d 55 d7          	lea    -0x29(%rbp),%rdx
  4011cd:	48 89 ce             	mov    %rcx,%rsi
  4011d0:	48 89 c7             	mov    %rax,%rdi
  4011d3:	e8 70 02 00 00       	callq  401448 <std::_Vector_base<int, std::allocator<int> >::_Vector_base(unsigned long, std::allocator<int> const&)>
  4011d8:	48 8d 45 d7          	lea    -0x29(%rbp),%rax
  4011dc:	48 89 c7             	mov    %rax,%rdi
  4011df:	e8 6c fd ff ff       	callq  400f50 <std::allocator<int>::~allocator()>
  4011e4:	48 8b 45 c8          	mov    -0x38(%rbp),%rax
  4011e8:	48 89 c7             	mov    %rax,%rdi
  4011eb:	e8 20 02 00 00       	callq  401410 <std::_Vector_base<int, std::allocator<int> >::_M_get_Tp_allocator()>
  4011f0:	49 89 c5             	mov    %rax,%r13
  4011f3:	48 8b 45 c8          	mov    -0x38(%rbp),%rax
  4011f7:	48 8b 18             	mov    (%rax),%rbx
  4011fa:	48 8b 45 c0          	mov    -0x40(%rbp),%rax
  4011fe:	48 89 c7             	mov    %rax,%rdi
  401201:	e8 b8 03 00 00       	callq  4015be <std::vector<int, std::allocator<int> >::end() const>
  401206:	49 89 c4             	mov    %rax,%r12
  401209:	48 8b 45 c0          	mov    -0x40(%rbp),%rax
  40120d:	48 89 c7             	mov    %rax,%rdi
  401210:	e8 55 03 00 00       	callq  40156a <std::vector<int, std::allocator<int> >::begin() const>
  401215:	4c 89 e9             	mov    %r13,%rcx
  401218:	48 89 da             	mov    %rbx,%rdx
  40121b:	4c 89 e6             	mov    %r12,%rsi
  40121e:	48 89 c7             	mov    %rax,%rdi
  401221:	e8 ec 03 00 00       	callq  401612 <int* std::__uninitialized_copy_a<__gnu_cxx::__normal_iterator<int const*, std::vector<int, std::allocator<int> > >, int*, int>(__gnu_cxx::__normal_iterator<int const*, std::vector<int, std::allocator<int> > >, __gnu_cxx::__normal_iterator<int const*, std::vector<int, std::allocator<int> > >, int*, std::allocator<int>&)>
  401226:	48 89 c2             	mov    %rax,%rdx
  401229:	48 8b 45 c8          	mov    -0x38(%rbp),%rax
  40122d:	48 89 50 08          	mov    %rdx,0x8(%rax)
  401231:	90                   	nop
  401232:	48 8b 45 d8          	mov    -0x28(%rbp),%rax
  401236:	64 48 33 04 25 28 00 	xor    %fs:0x28,%rax
  40123d:	00 00 
  40123f:	74 3b                	je     40127c <std::vector<int, std::allocator<int> >::vector(std::vector<int, std::allocator<int> > const&)+0x108>
  401241:	eb 34                	jmp    401277 <std::vector<int, std::allocator<int> >::vector(std::vector<int, std::allocator<int> > const&)+0x103>
  401243:	48 89 c3             	mov    %rax,%rbx
  401246:	48 8d 45 d7          	lea    -0x29(%rbp),%rax
  40124a:	48 89 c7             	mov    %rax,%rdi
  40124d:	e8 fe fc ff ff       	callq  400f50 <std::allocator<int>::~allocator()>
  401252:	48 89 d8             	mov    %rbx,%rax
  401255:	48 89 c7             	mov    %rax,%rdi
  401258:	e8 43 f9 ff ff       	callq  400ba0 <_Unwind_Resume@plt>
  40125d:	48 89 c3             	mov    %rax,%rbx
  401260:	48 8b 45 c8          	mov    -0x38(%rbp),%rax
  401264:	48 89 c7             	mov    %rax,%rdi
  401267:	e8 be 00 00 00       	callq  40132a <std::_Vector_base<int, std::allocator<int> >::~_Vector_base()>
  40126c:	48 89 d8             	mov    %rbx,%rax
  40126f:	48 89 c7             	mov    %rax,%rdi
  401272:	e8 29 f9 ff ff       	callq  400ba0 <_Unwind_Resume@plt>
  401277:	e8 94 f8 ff ff       	callq  400b10 <__stack_chk_fail@plt>
  40127c:	48 83 c4 28          	add    $0x28,%rsp
  401280:	5b                   	pop    %rbx
  401281:	41 5c                	pop    %r12
  401283:	41 5d                	pop    %r13
  401285:	5d                   	pop    %rbp
  401286:	c3                   	retq   

0000000000401287 <bool setmin<std::vector<int, std::allocator<int> > >(std::vector<int, std::allocator<int> >&, std::vector<int, std::allocator<int> >)>:
  401287:	55                   	push   %rbp
  401288:	48 89 e5             	mov    %rsp,%rbp
  40128b:	48 83 ec 10          	sub    $0x10,%rsp
  40128f:	48 89 7d f8          	mov    %rdi,-0x8(%rbp)
  401293:	48 89 75 f0          	mov    %rsi,-0x10(%rbp)
  401297:	48 8b 55 f8          	mov    -0x8(%rbp),%rdx
  40129b:	48 8b 45 f0          	mov    -0x10(%rbp),%rax
  40129f:	48 89 d6             	mov    %rdx,%rsi
  4012a2:	48 89 c7             	mov    %rax,%rdi
  4012a5:	e8 99 03 00 00       	callq  401643 <bool std::operator< <int, std::allocator<int> >(std::vector<int, std::allocator<int> > const&, std::vector<int, std::allocator<int> > const&)>
  4012aa:	84 c0                	test   %al,%al
  4012ac:	74 1a                	je     4012c8 <bool setmin<std::vector<int, std::allocator<int> > >(std::vector<int, std::allocator<int> >&, std::vector<int, std::allocator<int> >)+0x41>
  4012ae:	48 8b 55 f0          	mov    -0x10(%rbp),%rdx
  4012b2:	48 8b 45 f8          	mov    -0x8(%rbp),%rax
  4012b6:	48 89 d6             	mov    %rdx,%rsi
  4012b9:	48 89 c7             	mov    %rax,%rdi
  4012bc:	e8 03 04 00 00       	callq  4016c4 <std::vector<int, std::allocator<int> >::operator=(std::vector<int, std::allocator<int> > const&)>
  4012c1:	b8 01 00 00 00       	mov    $0x1,%eax
  4012c6:	eb 05                	jmp    4012cd <bool setmin<std::vector<int, std::allocator<int> > >(std::vector<int, std::allocator<int> >&, std::vector<int, std::allocator<int> >)+0x46>
  4012c8:	b8 00 00 00 00       	mov    $0x0,%eax
  4012cd:	c9                   	leaveq 
  4012ce:	c3                   	retq   
  4012cf:	90                   	nop

00000000004012d0 <__gnu_cxx::new_allocator<int>::new_allocator()>:
  4012d0:	55                   	push   %rbp
  4012d1:	48 89 e5             	mov    %rsp,%rbp
  4012d4:	48 89 7d f8          	mov    %rdi,-0x8(%rbp)
  4012d8:	90                   	nop
  4012d9:	5d                   	pop    %rbp
  4012da:	c3                   	retq   
  4012db:	90                   	nop

00000000004012dc <__gnu_cxx::new_allocator<int>::~new_allocator()>:
  4012dc:	55                   	push   %rbp
  4012dd:	48 89 e5             	mov    %rsp,%rbp
  4012e0:	48 89 7d f8          	mov    %rdi,-0x8(%rbp)
  4012e4:	90                   	nop
  4012e5:	5d                   	pop    %rbp
  4012e6:	c3                   	retq   
  4012e7:	90                   	nop

00000000004012e8 <std::_Vector_base<int, std::allocator<int> >::_Vector_impl::~_Vector_impl()>:
  4012e8:	55                   	push   %rbp
  4012e9:	48 89 e5             	mov    %rsp,%rbp
  4012ec:	48 83 ec 10          	sub    $0x10,%rsp
  4012f0:	48 89 7d f8          	mov    %rdi,-0x8(%rbp)
  4012f4:	48 8b 45 f8          	mov    -0x8(%rbp),%rax
  4012f8:	48 89 c7             	mov    %rax,%rdi
  4012fb:	e8 50 fc ff ff       	callq  400f50 <std::allocator<int>::~allocator()>
  401300:	90                   	nop
  401301:	c9                   	leaveq 
  401302:	c3                   	retq   
  401303:	90                   	nop

0000000000401304 <std::_Vector_base<int, std::allocator<int> >::_Vector_base(std::allocator<int> const&)>:
  401304:	55                   	push   %rbp
  401305:	48 89 e5             	mov    %rsp,%rbp
  401308:	48 83 ec 10          	sub    $0x10,%rsp
  40130c:	48 89 7d f8          	mov    %rdi,-0x8(%rbp)
  401310:	48 89 75 f0          	mov    %rsi,-0x10(%rbp)
  401314:	48 8b 45 f8          	mov    -0x8(%rbp),%rax
  401318:	48 8b 55 f0          	mov    -0x10(%rbp),%rdx
  40131c:	48 89 d6             	mov    %rdx,%rsi
  40131f:	48 89 c7             	mov    %rax,%rdi
  401322:	e8 b3 06 00 00       	callq  4019da <std::_Vector_base<int, std::allocator<int> >::_Vector_impl::_Vector_impl(std::allocator<int> const&)>
  401327:	90                   	nop
  401328:	c9                   	leaveq 
  401329:	c3                   	retq   

000000000040132a <std::_Vector_base<int, std::allocator<int> >::~_Vector_base()>:
  40132a:	55                   	push   %rbp
  40132b:	48 89 e5             	mov    %rsp,%rbp
  40132e:	48 83 ec 10          	sub    $0x10,%rsp
  401332:	48 89 7d f8          	mov    %rdi,-0x8(%rbp)
  401336:	48 8b 45 f8          	mov    -0x8(%rbp),%rax
  40133a:	48 8b 40 10          	mov    0x10(%rax),%rax
  40133e:	48 89 c2             	mov    %rax,%rdx
  401341:	48 8b 45 f8          	mov    -0x8(%rbp),%rax
  401345:	48 8b 00             	mov    (%rax),%rax
  401348:	48 29 c2             	sub    %rax,%rdx
  40134b:	48 89 d0             	mov    %rdx,%rax
  40134e:	48 c1 f8 02          	sar    $0x2,%rax
  401352:	48 89 c2             	mov    %rax,%rdx
  401355:	48 8b 45 f8          	mov    -0x8(%rbp),%rax
  401359:	48 8b 08             	mov    (%rax),%rcx
  40135c:	48 8b 45 f8          	mov    -0x8(%rbp),%rax
  401360:	48 89 ce             	mov    %rcx,%rsi
  401363:	48 89 c7             	mov    %rax,%rdi
  401366:	e8 b9 06 00 00       	callq  401a24 <std::_Vector_base<int, std::allocator<int> >::_M_deallocate(int*, unsigned long)>
  40136b:	48 8b 45 f8          	mov    -0x8(%rbp),%rax
  40136f:	48 89 c7             	mov    %rax,%rdi
  401372:	e8 71 ff ff ff       	callq  4012e8 <std::_Vector_base<int, std::allocator<int> >::_Vector_impl::~_Vector_impl()>
  401377:	90                   	nop
  401378:	c9                   	leaveq 
  401379:	c3                   	retq   

000000000040137a <void std::vector<int, std::allocator<int> >::_M_range_initialize<int const*>(int const*, int const*, std::forward_iterator_tag)>:
  40137a:	55                   	push   %rbp
  40137b:	48 89 e5             	mov    %rsp,%rbp
  40137e:	48 83 ec 30          	sub    $0x30,%rsp
  401382:	48 89 7d e8          	mov    %rdi,-0x18(%rbp)
  401386:	48 89 75 e0          	mov    %rsi,-0x20(%rbp)
  40138a:	48 89 55 d8          	mov    %rdx,-0x28(%rbp)
  40138e:	48 8b 55 d8          	mov    -0x28(%rbp),%rdx
  401392:	48 8b 45 e0          	mov    -0x20(%rbp),%rax
  401396:	48 89 d6             	mov    %rdx,%rsi
  401399:	48 89 c7             	mov    %rax,%rdi
  40139c:	e8 b8 06 00 00       	callq  401a59 <std::iterator_traits<int const*>::difference_type std::distance<int const*>(int const*, int const*)>
  4013a1:	48 89 45 f8          	mov    %rax,-0x8(%rbp)
  4013a5:	48 8b 45 e8          	mov    -0x18(%rbp),%rax
  4013a9:	48 8b 55 f8          	mov    -0x8(%rbp),%rdx
  4013ad:	48 89 d6             	mov    %rdx,%rsi
  4013b0:	48 89 c7             	mov    %rax,%rdi
  4013b3:	e8 04 07 00 00       	callq  401abc <std::_Vector_base<int, std::allocator<int> >::_M_allocate(unsigned long)>
  4013b8:	48 89 c2             	mov    %rax,%rdx
  4013bb:	48 8b 45 e8          	mov    -0x18(%rbp),%rax
  4013bf:	48 89 10             	mov    %rdx,(%rax)
  4013c2:	48 8b 45 e8          	mov    -0x18(%rbp),%rax
  4013c6:	48 8b 00             	mov    (%rax),%rax
  4013c9:	48 8b 55 f8          	mov    -0x8(%rbp),%rdx
  4013cd:	48 c1 e2 02          	shl    $0x2,%rdx
  4013d1:	48 01 c2             	add    %rax,%rdx
  4013d4:	48 8b 45 e8          	mov    -0x18(%rbp),%rax
  4013d8:	48 89 50 10          	mov    %rdx,0x10(%rax)
  4013dc:	48 8b 45 e8          	mov    -0x18(%rbp),%rax
  4013e0:	48 89 c7             	mov    %rax,%rdi
  4013e3:	e8 28 00 00 00       	callq  401410 <std::_Vector_base<int, std::allocator<int> >::_M_get_Tp_allocator()>
  4013e8:	48 89 c1             	mov    %rax,%rcx
  4013eb:	48 8b 45 e8          	mov    -0x18(%rbp),%rax
  4013ef:	48 8b 10             	mov    (%rax),%rdx
  4013f2:	48 8b 75 d8          	mov    -0x28(%rbp),%rsi
  4013f6:	48 8b 45 e0          	mov    -0x20(%rbp),%rax
  4013fa:	48 89 c7             	mov    %rax,%rdi
  4013fd:	e8 ed 06 00 00       	callq  401aef <int* std::__uninitialized_copy_a<int const*, int*, int>(int const*, int const*, int*, std::allocator<int>&)>
  401402:	48 89 c2             	mov    %rax,%rdx
  401405:	48 8b 45 e8          	mov    -0x18(%rbp),%rax
  401409:	48 89 50 08          	mov    %rdx,0x8(%rax)
  40140d:	90                   	nop
  40140e:	c9                   	leaveq 
  40140f:	c3                   	retq   

0000000000401410 <std::_Vector_base<int, std::allocator<int> >::_M_get_Tp_allocator()>:
  401410:	55                   	push   %rbp
  401411:	48 89 e5             	mov    %rsp,%rbp
  401414:	48 89 7d f8          	mov    %rdi,-0x8(%rbp)
  401418:	48 8b 45 f8          	mov    -0x8(%rbp),%rax
  40141c:	5d                   	pop    %rbp
  40141d:	c3                   	retq   

000000000040141e <void std::_Destroy<int*, int>(int*, int*, std::allocator<int>&)>:
  40141e:	55                   	push   %rbp
  40141f:	48 89 e5             	mov    %rsp,%rbp
  401422:	48 83 ec 20          	sub    $0x20,%rsp
  401426:	48 89 7d f8          	mov    %rdi,-0x8(%rbp)
  40142a:	48 89 75 f0          	mov    %rsi,-0x10(%rbp)
  40142e:	48 89 55 e8          	mov    %rdx,-0x18(%rbp)
  401432:	48 8b 55 f0          	mov    -0x10(%rbp),%rdx
  401436:	48 8b 45 f8          	mov    -0x8(%rbp),%rax
  40143a:	48 89 d6             	mov    %rdx,%rsi
  40143d:	48 89 c7             	mov    %rax,%rdi
  401440:	e8 db 06 00 00       	callq  401b20 <void std::_Destroy<int*>(int*, int*)>
  401445:	90                   	nop
  401446:	c9                   	leaveq 
  401447:	c3                   	retq   

0000000000401448 <std::_Vector_base<int, std::allocator<int> >::_Vector_base(unsigned long, std::allocator<int> const&)>:
  401448:	55                   	push   %rbp
  401449:	48 89 e5             	mov    %rsp,%rbp
  40144c:	53                   	push   %rbx
  40144d:	48 83 ec 28          	sub    $0x28,%rsp
  401451:	48 89 7d e8          	mov    %rdi,-0x18(%rbp)
  401455:	48 89 75 e0          	mov    %rsi,-0x20(%rbp)
  401459:	48 89 55 d8          	mov    %rdx,-0x28(%rbp)
  40145d:	48 8b 45 e8          	mov    -0x18(%rbp),%rax
  401461:	48 8b 55 d8          	mov    -0x28(%rbp),%rdx
  401465:	48 89 d6             	mov    %rdx,%rsi
  401468:	48 89 c7             	mov    %rax,%rdi
  40146b:	e8 6a 05 00 00       	callq  4019da <std::_Vector_base<int, std::allocator<int> >::_Vector_impl::_Vector_impl(std::allocator<int> const&)>
  401470:	48 8b 55 e0          	mov    -0x20(%rbp),%rdx
  401474:	48 8b 45 e8          	mov    -0x18(%rbp),%rax
  401478:	48 89 d6             	mov    %rdx,%rsi
  40147b:	48 89 c7             	mov    %rax,%rdi
  40147e:	e8 c3 06 00 00       	callq  401b46 <std::_Vector_base<int, std::allocator<int> >::_M_create_storage(unsigned long)>
  401483:	eb 1a                	jmp    40149f <std::_Vector_base<int, std::allocator<int> >::_Vector_base(unsigned long, std::allocator<int> const&)+0x57>
  401485:	48 89 c3             	mov    %rax,%rbx
  401488:	48 8b 45 e8          	mov    -0x18(%rbp),%rax
  40148c:	48 89 c7             	mov    %rax,%rdi
  40148f:	e8 54 fe ff ff       	callq  4012e8 <std::_Vector_base<int, std::allocator<int> >::_Vector_impl::~_Vector_impl()>
  401494:	48 89 d8             	mov    %rbx,%rax
  401497:	48 89 c7             	mov    %rax,%rdi
  40149a:	e8 01 f7 ff ff       	callq  400ba0 <_Unwind_Resume@plt>
  40149f:	48 83 c4 28          	add    $0x28,%rsp
  4014a3:	5b                   	pop    %rbx
  4014a4:	5d                   	pop    %rbp
  4014a5:	c3                   	retq   

00000000004014a6 <std::vector<int, std::allocator<int> >::_M_default_initialize(unsigned long)>:
  4014a6:	55                   	push   %rbp
  4014a7:	48 89 e5             	mov    %rsp,%rbp
  4014aa:	48 83 ec 10          	sub    $0x10,%rsp
  4014ae:	48 89 7d f8          	mov    %rdi,-0x8(%rbp)
  4014b2:	48 89 75 f0          	mov    %rsi,-0x10(%rbp)
  4014b6:	48 8b 45 f8          	mov    -0x8(%rbp),%rax
  4014ba:	48 89 c7             	mov    %rax,%rdi
  4014bd:	e8 4e ff ff ff       	callq  401410 <std::_Vector_base<int, std::allocator<int> >::_M_get_Tp_allocator()>
  4014c2:	48 89 c2             	mov    %rax,%rdx
  4014c5:	48 8b 45 f8          	mov    -0x8(%rbp),%rax
  4014c9:	48 8b 00             	mov    (%rax),%rax
  4014cc:	48 8b 4d f0          	mov    -0x10(%rbp),%rcx
  4014d0:	48 89 ce             	mov    %rcx,%rsi
  4014d3:	48 89 c7             	mov    %rax,%rdi
  4014d6:	e8 c4 06 00 00       	callq  401b9f <int* std::__uninitialized_default_n_a<int*, unsigned long, int>(int*, unsigned long, std::allocator<int>&)>
  4014db:	48 89 c2             	mov    %rax,%rdx
  4014de:	48 8b 45 f8          	mov    -0x8(%rbp),%rax
  4014e2:	48 89 50 08          	mov    %rdx,0x8(%rax)
  4014e6:	90                   	nop
  4014e7:	c9                   	leaveq 
  4014e8:	c3                   	retq   
  4014e9:	90                   	nop

00000000004014ea <std::vector<int, std::allocator<int> >::size() const>:
  4014ea:	55                   	push   %rbp
  4014eb:	48 89 e5             	mov    %rsp,%rbp
  4014ee:	48 89 7d f8          	mov    %rdi,-0x8(%rbp)
  4014f2:	48 8b 45 f8          	mov    -0x8(%rbp),%rax
  4014f6:	48 8b 40 08          	mov    0x8(%rax),%rax
  4014fa:	48 89 c2             	mov    %rax,%rdx
  4014fd:	48 8b 45 f8          	mov    -0x8(%rbp),%rax
  401501:	48 8b 00             	mov    (%rax),%rax
  401504:	48 29 c2             	sub    %rax,%rdx
  401507:	48 89 d0             	mov    %rdx,%rax
  40150a:	48 c1 f8 02          	sar    $0x2,%rax
  40150e:	5d                   	pop    %rbp
  40150f:	c3                   	retq   

0000000000401510 <__gnu_cxx::__alloc_traits<std::allocator<int> >::_S_select_on_copy(std::allocator<int> const&)>:
  401510:	55                   	push   %rbp
  401511:	48 89 e5             	mov    %rsp,%rbp
  401514:	48 83 ec 20          	sub    $0x20,%rsp
  401518:	48 89 7d e8          	mov    %rdi,-0x18(%rbp)
  40151c:	48 89 75 e0          	mov    %rsi,-0x20(%rbp)
  401520:	64 48 8b 04 25 28 00 	mov    %fs:0x28,%rax
  401527:	00 00 
  401529:	48 89 45 f8          	mov    %rax,-0x8(%rbp)
  40152d:	31 c0                	xor    %eax,%eax
  40152f:	48 8b 45 e8          	mov    -0x18(%rbp),%rax
  401533:	48 8b 55 e0          	mov    -0x20(%rbp),%rdx
  401537:	48 89 d6             	mov    %rdx,%rsi
  40153a:	48 89 c7             	mov    %rax,%rdi
  40153d:	e8 86 06 00 00       	callq  401bc8 <std::allocator_traits<std::allocator<int> >::select_on_container_copy_construction(std::allocator<int> const&)>
  401542:	48 8b 45 e8          	mov    -0x18(%rbp),%rax
  401546:	48 8b 4d f8          	mov    -0x8(%rbp),%rcx
  40154a:	64 48 33 0c 25 28 00 	xor    %fs:0x28,%rcx
  401551:	00 00 
  401553:	74 05                	je     40155a <__gnu_cxx::__alloc_traits<std::allocator<int> >::_S_select_on_copy(std::allocator<int> const&)+0x4a>
  401555:	e8 b6 f5 ff ff       	callq  400b10 <__stack_chk_fail@plt>
  40155a:	c9                   	leaveq 
  40155b:	c3                   	retq   

000000000040155c <std::_Vector_base<int, std::allocator<int> >::_M_get_Tp_allocator() const>:
  40155c:	55                   	push   %rbp
  40155d:	48 89 e5             	mov    %rsp,%rbp
  401560:	48 89 7d f8          	mov    %rdi,-0x8(%rbp)
  401564:	48 8b 45 f8          	mov    -0x8(%rbp),%rax
  401568:	5d                   	pop    %rbp
  401569:	c3                   	retq   

000000000040156a <std::vector<int, std::allocator<int> >::begin() const>:
  40156a:	55                   	push   %rbp
  40156b:	48 89 e5             	mov    %rsp,%rbp
  40156e:	48 83 ec 30          	sub    $0x30,%rsp
  401572:	48 89 7d d8          	mov    %rdi,-0x28(%rbp)
  401576:	64 48 8b 04 25 28 00 	mov    %fs:0x28,%rax
  40157d:	00 00 
  40157f:	48 89 45 f8          	mov    %rax,-0x8(%rbp)
  401583:	31 c0                	xor    %eax,%eax
  401585:	48 8b 45 d8          	mov    -0x28(%rbp),%rax
  401589:	48 8b 00             	mov    (%rax),%rax
  40158c:	48 89 45 f0          	mov    %rax,-0x10(%rbp)
  401590:	48 8d 55 f0          	lea    -0x10(%rbp),%rdx
  401594:	48 8d 45 e0          	lea    -0x20(%rbp),%rax
  401598:	48 89 d6             	mov    %rdx,%rsi
  40159b:	48 89 c7             	mov    %rax,%rdi
  40159e:	e8 75 06 00 00       	callq  401c18 <__gnu_cxx::__normal_iterator<int const*, std::vector<int, std::allocator<int> > >::__normal_iterator(int const* const&)>
  4015a3:	48 8b 45 e0          	mov    -0x20(%rbp),%rax
  4015a7:	48 8b 4d f8          	mov    -0x8(%rbp),%rcx
  4015ab:	64 48 33 0c 25 28 00 	xor    %fs:0x28,%rcx
  4015b2:	00 00 
  4015b4:	74 05                	je     4015bb <std::vector<int, std::allocator<int> >::begin() const+0x51>
  4015b6:	e8 55 f5 ff ff       	callq  400b10 <__stack_chk_fail@plt>
  4015bb:	c9                   	leaveq 
  4015bc:	c3                   	retq   
  4015bd:	90                   	nop

00000000004015be <std::vector<int, std::allocator<int> >::end() const>:
  4015be:	55                   	push   %rbp
  4015bf:	48 89 e5             	mov    %rsp,%rbp
  4015c2:	48 83 ec 30          	sub    $0x30,%rsp
  4015c6:	48 89 7d d8          	mov    %rdi,-0x28(%rbp)
  4015ca:	64 48 8b 04 25 28 00 	mov    %fs:0x28,%rax
  4015d1:	00 00 
  4015d3:	48 89 45 f8          	mov    %rax,-0x8(%rbp)
  4015d7:	31 c0                	xor    %eax,%eax
  4015d9:	48 8b 45 d8          	mov    -0x28(%rbp),%rax
  4015dd:	48 8b 40 08          	mov    0x8(%rax),%rax
  4015e1:	48 89 45 f0          	mov    %rax,-0x10(%rbp)
  4015e5:	48 8d 55 f0          	lea    -0x10(%rbp),%rdx
  4015e9:	48 8d 45 e0          	lea    -0x20(%rbp),%rax
  4015ed:	48 89 d6             	mov    %rdx,%rsi
  4015f0:	48 89 c7             	mov    %rax,%rdi
  4015f3:	e8 20 06 00 00       	callq  401c18 <__gnu_cxx::__normal_iterator<int const*, std::vector<int, std::allocator<int> > >::__normal_iterator(int const* const&)>
  4015f8:	48 8b 45 e0          	mov    -0x20(%rbp),%rax
  4015fc:	48 8b 4d f8          	mov    -0x8(%rbp),%rcx
  401600:	64 48 33 0c 25 28 00 	xor    %fs:0x28,%rcx
  401607:	00 00 
  401609:	74 05                	je     401610 <std::vector<int, std::allocator<int> >::end() const+0x52>
  40160b:	e8 00 f5 ff ff       	callq  400b10 <__stack_chk_fail@plt>
  401610:	c9                   	leaveq 
  401611:	c3                   	retq   

0000000000401612 <int* std::__uninitialized_copy_a<__gnu_cxx::__normal_iterator<int const*, std::vector<int, std::allocator<int> > >, int*, int>(__gnu_cxx::__normal_iterator<int const*, std::vector<int, std::allocator<int> > >, __gnu_cxx::__normal_iterator<int const*, std::vector<int, std::allocator<int> > >, int*, std::allocator<int>&)>:
  401612:	55                   	push   %rbp
  401613:	48 89 e5             	mov    %rsp,%rbp
  401616:	48 83 ec 20          	sub    $0x20,%rsp
  40161a:	48 89 7d f0          	mov    %rdi,-0x10(%rbp)
  40161e:	48 89 75 e0          	mov    %rsi,-0x20(%rbp)
  401622:	48 89 55 e8          	mov    %rdx,-0x18(%rbp)
  401626:	48 89 4d f8          	mov    %rcx,-0x8(%rbp)
  40162a:	48 8b 55 e8          	mov    -0x18(%rbp),%rdx
  40162e:	48 8b 4d e0          	mov    -0x20(%rbp),%rcx
  401632:	48 8b 45 f0          	mov    -0x10(%rbp),%rax
  401636:	48 89 ce             	mov    %rcx,%rsi
  401639:	48 89 c7             	mov    %rax,%rdi
  40163c:	e8 f4 05 00 00       	callq  401c35 <int* std::uninitialized_copy<__gnu_cxx::__normal_iterator<int const*, std::vector<int, std::allocator<int> > >, int*>(__gnu_cxx::__normal_iterator<int const*, std::vector<int, std::allocator<int> > >, __gnu_cxx::__normal_iterator<int const*, std::vector<int, std::allocator<int> > >, int*)>
  401641:	c9                   	leaveq 
  401642:	c3                   	retq   

0000000000401643 <bool std::operator< <int, std::allocator<int> >(std::vector<int, std::allocator<int> > const&, std::vector<int, std::allocator<int> > const&)>:
  401643:	55                   	push   %rbp
  401644:	48 89 e5             	mov    %rsp,%rbp
  401647:	41 55                	push   %r13
  401649:	41 54                	push   %r12
  40164b:	53                   	push   %rbx
  40164c:	48 83 ec 18          	sub    $0x18,%rsp
  401650:	48 89 7d d8          	mov    %rdi,-0x28(%rbp)
  401654:	48 89 75 d0          	mov    %rsi,-0x30(%rbp)
  401658:	48 8b 45 d0          	mov    -0x30(%rbp),%rax
  40165c:	48 89 c7             	mov    %rax,%rdi
  40165f:	e8 5a ff ff ff       	callq  4015be <std::vector<int, std::allocator<int> >::end() const>
  401664:	49 89 c5             	mov    %rax,%r13
  401667:	48 8b 45 d0          	mov    -0x30(%rbp),%rax
  40166b:	48 89 c7             	mov    %rax,%rdi
  40166e:	e8 f7 fe ff ff       	callq  40156a <std::vector<int, std::allocator<int> >::begin() const>
  401673:	49 89 c4             	mov    %rax,%r12
  401676:	48 8b 45 d8          	mov    -0x28(%rbp),%rax
  40167a:	48 89 c7             	mov    %rax,%rdi
  40167d:	e8 3c ff ff ff       	callq  4015be <std::vector<int, std::allocator<int> >::end() const>
  401682:	48 89 c3             	mov    %rax,%rbx
  401685:	48 8b 45 d8          	mov    -0x28(%rbp),%rax
  401689:	48 89 c7             	mov    %rax,%rdi
  40168c:	e8 d9 fe ff ff       	callq  40156a <std::vector<int, std::allocator<int> >::begin() const>
  401691:	4c 89 e9             	mov    %r13,%rcx
  401694:	4c 89 e2             	mov    %r12,%rdx
  401697:	48 89 de             	mov    %rbx,%rsi
  40169a:	48 89 c7             	mov    %rax,%rdi
  40169d:	e8 c4 05 00 00       	callq  401c66 <bool std::lexicographical_compare<__gnu_cxx::__normal_iterator<int const*, std::vector<int, std::allocator<int> > >, __gnu_cxx::__normal_iterator<int const*, std::vector<int, std::allocator<int> > > >(__gnu_cxx::__normal_iterator<int const*, std::vector<int, std::allocator<int> > >, __gnu_cxx::__normal_iterator<int const*, std::vector<int, std::allocator<int> > >, __gnu_cxx::__normal_iterator<int const*, std::vector<int, std::allocator<int> > >, __gnu_cxx::__normal_iterator<int const*, std::vector<int, std::allocator<int> > >)>
  4016a2:	48 83 c4 18          	add    $0x18,%rsp
  4016a6:	5b                   	pop    %rbx
  4016a7:	41 5c                	pop    %r12
  4016a9:	41 5d                	pop    %r13
  4016ab:	5d                   	pop    %rbp
  4016ac:	c3                   	retq   

00000000004016ad <__gnu_cxx::__alloc_traits<std::allocator<int> >::_S_propagate_on_copy_assign()>:
  4016ad:	55                   	push   %rbp
  4016ae:	48 89 e5             	mov    %rsp,%rbp
  4016b1:	b8 00 00 00 00       	mov    $0x0,%eax
  4016b6:	5d                   	pop    %rbp
  4016b7:	c3                   	retq   

00000000004016b8 <__gnu_cxx::__alloc_traits<std::allocator<int> >::_S_always_equal()>:
  4016b8:	55                   	push   %rbp
  4016b9:	48 89 e5             	mov    %rsp,%rbp
  4016bc:	b8 01 00 00 00       	mov    $0x1,%eax
  4016c1:	5d                   	pop    %rbp
  4016c2:	c3                   	retq   
  4016c3:	90                   	nop

00000000004016c4 <std::vector<int, std::allocator<int> >::operator=(std::vector<int, std::allocator<int> > const&)>:
  4016c4:	55                   	push   %rbp
  4016c5:	48 89 e5             	mov    %rsp,%rbp
  4016c8:	41 56                	push   %r14
  4016ca:	41 55                	push   %r13
  4016cc:	41 54                	push   %r12
  4016ce:	53                   	push   %rbx
  4016cf:	48 83 ec 20          	sub    $0x20,%rsp
  4016d3:	48 89 7d c8          	mov    %rdi,-0x38(%rbp)
  4016d7:	48 89 75 c0          	mov    %rsi,-0x40(%rbp)
  4016db:	48 8b 45 c0          	mov    -0x40(%rbp),%rax
  4016df:	48 3b 45 c8          	cmp    -0x38(%rbp),%rax
  4016e3:	0f 84 e0 02 00 00    	je     4019c9 <std::vector<int, std::allocator<int> >::operator=(std::vector<int, std::allocator<int> > const&)+0x305>
  4016e9:	e8 bf ff ff ff       	callq  4016ad <__gnu_cxx::__alloc_traits<std::allocator<int> >::_S_propagate_on_copy_assign()>
  4016ee:	84 c0                	test   %al,%al
  4016f0:	0f 84 d0 00 00 00    	je     4017c6 <std::vector<int, std::allocator<int> >::operator=(std::vector<int, std::allocator<int> > const&)+0x102>
  4016f6:	e8 bd ff ff ff       	callq  4016b8 <__gnu_cxx::__alloc_traits<std::allocator<int> >::_S_always_equal()>
  4016fb:	83 f0 01             	xor    $0x1,%eax
  4016fe:	84 c0                	test   %al,%al
  401700:	74 31                	je     401733 <std::vector<int, std::allocator<int> >::operator=(std::vector<int, std::allocator<int> > const&)+0x6f>
  401702:	48 8b 45 c0          	mov    -0x40(%rbp),%rax
  401706:	48 89 c7             	mov    %rax,%rdi
  401709:	e8 4e fe ff ff       	callq  40155c <std::_Vector_base<int, std::allocator<int> >::_M_get_Tp_allocator() const>
  40170e:	48 89 c3             	mov    %rax,%rbx
  401711:	48 8b 45 c8          	mov    -0x38(%rbp),%rax
  401715:	48 89 c7             	mov    %rax,%rdi
  401718:	e8 f3 fc ff ff       	callq  401410 <std::_Vector_base<int, std::allocator<int> >::_M_get_Tp_allocator()>
  40171d:	48 89 de             	mov    %rbx,%rsi
  401720:	48 89 c7             	mov    %rax,%rdi
  401723:	e8 b0 05 00 00       	callq  401cd8 <bool std::operator!=<int>(std::allocator<int> const&, std::allocator<int> const&)>
  401728:	84 c0                	test   %al,%al
  40172a:	74 07                	je     401733 <std::vector<int, std::allocator<int> >::operator=(std::vector<int, std::allocator<int> > const&)+0x6f>
  40172c:	b8 01 00 00 00       	mov    $0x1,%eax
  401731:	eb 05                	jmp    401738 <std::vector<int, std::allocator<int> >::operator=(std::vector<int, std::allocator<int> > const&)+0x74>
  401733:	b8 00 00 00 00       	mov    $0x0,%eax
  401738:	84 c0                	test   %al,%al
  40173a:	74 64                	je     4017a0 <std::vector<int, std::allocator<int> >::operator=(std::vector<int, std::allocator<int> > const&)+0xdc>
  40173c:	48 8b 45 c8          	mov    -0x38(%rbp),%rax
  401740:	48 89 c7             	mov    %rax,%rdi
  401743:	e8 a4 05 00 00       	callq  401cec <std::vector<int, std::allocator<int> >::clear()>
  401748:	48 8b 45 c8          	mov    -0x38(%rbp),%rax
  40174c:	48 8b 40 10          	mov    0x10(%rax),%rax
  401750:	48 89 c2             	mov    %rax,%rdx
  401753:	48 8b 45 c8          	mov    -0x38(%rbp),%rax
  401757:	48 8b 00             	mov    (%rax),%rax
  40175a:	48 29 c2             	sub    %rax,%rdx
  40175d:	48 89 d0             	mov    %rdx,%rax
  401760:	48 c1 f8 02          	sar    $0x2,%rax
  401764:	48 89 c2             	mov    %rax,%rdx
  401767:	48 8b 45 c8          	mov    -0x38(%rbp),%rax
  40176b:	48 8b 08             	mov    (%rax),%rcx
  40176e:	48 8b 45 c8          	mov    -0x38(%rbp),%rax
  401772:	48 89 ce             	mov    %rcx,%rsi
  401775:	48 89 c7             	mov    %rax,%rdi
  401778:	e8 a7 02 00 00       	callq  401a24 <std::_Vector_base<int, std::allocator<int> >::_M_deallocate(int*, unsigned long)>
  40177d:	48 8b 45 c8          	mov    -0x38(%rbp),%rax
  401781:	48 c7 00 00 00 00 00 	movq   $0x0,(%rax)
  401788:	48 8b 45 c8          	mov    -0x38(%rbp),%rax
  40178c:	48 c7 40 08 00 00 00 	movq   $0x0,0x8(%rax)
  401793:	00 
  401794:	48 8b 45 c8          	mov    -0x38(%rbp),%rax
  401798:	48 c7 40 10 00 00 00 	movq   $0x0,0x10(%rax)
  40179f:	00 
  4017a0:	48 8b 45 c0          	mov    -0x40(%rbp),%rax
  4017a4:	48 89 c7             	mov    %rax,%rdi
  4017a7:	e8 b0 fd ff ff       	callq  40155c <std::_Vector_base<int, std::allocator<int> >::_M_get_Tp_allocator() const>
  4017ac:	48 89 c3             	mov    %rax,%rbx
  4017af:	48 8b 45 c8          	mov    -0x38(%rbp),%rax
  4017b3:	48 89 c7             	mov    %rax,%rdi
  4017b6:	e8 55 fc ff ff       	callq  401410 <std::_Vector_base<int, std::allocator<int> >::_M_get_Tp_allocator()>
  4017bb:	48 89 de             	mov    %rbx,%rsi
  4017be:	48 89 c7             	mov    %rax,%rdi
  4017c1:	e8 4b 05 00 00       	callq  401d11 <void std::__alloc_on_copy<std::allocator<int> >(std::allocator<int>&, std::allocator<int> const&)>
  4017c6:	48 8b 45 c0          	mov    -0x40(%rbp),%rax
  4017ca:	48 89 c7             	mov    %rax,%rdi
  4017cd:	e8 18 fd ff ff       	callq  4014ea <std::vector<int, std::allocator<int> >::size() const>
  4017d2:	48 89 45 d0          	mov    %rax,-0x30(%rbp)
  4017d6:	48 8b 45 c8          	mov    -0x38(%rbp),%rax
  4017da:	48 89 c7             	mov    %rax,%rdi
  4017dd:	e8 82 05 00 00       	callq  401d64 <std::vector<int, std::allocator<int> >::capacity() const>
  4017e2:	48 3b 45 d0          	cmp    -0x30(%rbp),%rax
  4017e6:	0f 92 c0             	setb   %al
  4017e9:	84 c0                	test   %al,%al
  4017eb:	0f 84 bd 00 00 00    	je     4018ae <std::vector<int, std::allocator<int> >::operator=(std::vector<int, std::allocator<int> > const&)+0x1ea>
  4017f1:	48 8b 45 c0          	mov    -0x40(%rbp),%rax
  4017f5:	48 89 c7             	mov    %rax,%rdi
  4017f8:	e8 c1 fd ff ff       	callq  4015be <std::vector<int, std::allocator<int> >::end() const>
  4017fd:	48 89 c3             	mov    %rax,%rbx
  401800:	48 8b 45 c0          	mov    -0x40(%rbp),%rax
  401804:	48 89 c7             	mov    %rax,%rdi
  401807:	e8 5e fd ff ff       	callq  40156a <std::vector<int, std::allocator<int> >::begin() const>
  40180c:	48 89 c2             	mov    %rax,%rdx
  40180f:	48 8b 75 d0          	mov    -0x30(%rbp),%rsi
  401813:	48 8b 45 c8          	mov    -0x38(%rbp),%rax
  401817:	48 89 d9             	mov    %rbx,%rcx
  40181a:	48 89 c7             	mov    %rax,%rdi
  40181d:	e8 68 05 00 00       	callq  401d8a <int* std::vector<int, std::allocator<int> >::_M_allocate_and_copy<__gnu_cxx::__normal_iterator<int const*, std::vector<int, std::allocator<int> > > >(unsigned long, __gnu_cxx::__normal_iterator<int const*, std::vector<int, std::allocator<int> > >, __gnu_cxx::__normal_iterator<int const*, std::vector<int, std::allocator<int> > >)>
  401822:	48 89 45 d8          	mov    %rax,-0x28(%rbp)
  401826:	48 8b 45 c8          	mov    -0x38(%rbp),%rax
  40182a:	48 89 c7             	mov    %rax,%rdi
  40182d:	e8 de fb ff ff       	callq  401410 <std::_Vector_base<int, std::allocator<int> >::_M_get_Tp_allocator()>
  401832:	48 89 c2             	mov    %rax,%rdx
  401835:	48 8b 45 c8          	mov    -0x38(%rbp),%rax
  401839:	48 8b 48 08          	mov    0x8(%rax),%rcx
  40183d:	48 8b 45 c8          	mov    -0x38(%rbp),%rax
  401841:	48 8b 00             	mov    (%rax),%rax
  401844:	48 89 ce             	mov    %rcx,%rsi
  401847:	48 89 c7             	mov    %rax,%rdi
  40184a:	e8 cf fb ff ff       	callq  40141e <void std::_Destroy<int*, int>(int*, int*, std::allocator<int>&)>
  40184f:	48 8b 45 c8          	mov    -0x38(%rbp),%rax
  401853:	48 8b 40 10          	mov    0x10(%rax),%rax
  401857:	48 89 c2             	mov    %rax,%rdx
  40185a:	48 8b 45 c8          	mov    -0x38(%rbp),%rax
  40185e:	48 8b 00             	mov    (%rax),%rax
  401861:	48 29 c2             	sub    %rax,%rdx
  401864:	48 89 d0             	mov    %rdx,%rax
  401867:	48 c1 f8 02          	sar    $0x2,%rax
  40186b:	48 89 c2             	mov    %rax,%rdx
  40186e:	48 8b 45 c8          	mov    -0x38(%rbp),%rax
  401872:	48 8b 08             	mov    (%rax),%rcx
  401875:	48 8b 45 c8          	mov    -0x38(%rbp),%rax
  401879:	48 89 ce             	mov    %rcx,%rsi
  40187c:	48 89 c7             	mov    %rax,%rdi
  40187f:	e8 a0 01 00 00       	callq  401a24 <std::_Vector_base<int, std::allocator<int> >::_M_deallocate(int*, unsigned long)>
  401884:	48 8b 45 c8          	mov    -0x38(%rbp),%rax
  401888:	48 8b 55 d8          	mov    -0x28(%rbp),%rdx
  40188c:	48 89 10             	mov    %rdx,(%rax)
  40188f:	48 8b 45 c8          	mov    -0x38(%rbp),%rax
  401893:	48 8b 00             	mov    (%rax),%rax
  401896:	48 8b 55 d0          	mov    -0x30(%rbp),%rdx
  40189a:	48 c1 e2 02          	shl    $0x2,%rdx
  40189e:	48 01 c2             	add    %rax,%rdx
  4018a1:	48 8b 45 c8          	mov    -0x38(%rbp),%rax
  4018a5:	48 89 50 10          	mov    %rdx,0x10(%rax)
  4018a9:	e9 01 01 00 00       	jmpq   4019af <std::vector<int, std::allocator<int> >::operator=(std::vector<int, std::allocator<int> > const&)+0x2eb>
  4018ae:	48 8b 45 c8          	mov    -0x38(%rbp),%rax
  4018b2:	48 89 c7             	mov    %rax,%rdi
  4018b5:	e8 30 fc ff ff       	callq  4014ea <std::vector<int, std::allocator<int> >::size() const>
  4018ba:	48 3b 45 d0          	cmp    -0x30(%rbp),%rax
  4018be:	0f 93 c0             	setae  %al
  4018c1:	84 c0                	test   %al,%al
  4018c3:	74 69                	je     40192e <std::vector<int, std::allocator<int> >::operator=(std::vector<int, std::allocator<int> > const&)+0x26a>
  4018c5:	48 8b 45 c8          	mov    -0x38(%rbp),%rax
  4018c9:	48 89 c7             	mov    %rax,%rdi
  4018cc:	e8 3f fb ff ff       	callq  401410 <std::_Vector_base<int, std::allocator<int> >::_M_get_Tp_allocator()>
  4018d1:	49 89 c4             	mov    %rax,%r12
  4018d4:	48 8b 45 c8          	mov    -0x38(%rbp),%rax
  4018d8:	48 89 c7             	mov    %rax,%rdi
  4018db:	e8 d6 05 00 00       	callq  401eb6 <std::vector<int, std::allocator<int> >::end()>
  4018e0:	48 89 c3             	mov    %rax,%rbx
  4018e3:	48 8b 45 c8          	mov    -0x38(%rbp),%rax
  4018e7:	48 89 c7             	mov    %rax,%rdi
  4018ea:	e8 33 05 00 00       	callq  401e22 <std::vector<int, std::allocator<int> >::begin()>
  4018ef:	49 89 c6             	mov    %rax,%r14
  4018f2:	48 8b 45 c0          	mov    -0x40(%rbp),%rax
  4018f6:	48 89 c7             	mov    %rax,%rdi
  4018f9:	e8 c0 fc ff ff       	callq  4015be <std::vector<int, std::allocator<int> >::end() const>
  4018fe:	49 89 c5             	mov    %rax,%r13
  401901:	48 8b 45 c0          	mov    -0x40(%rbp),%rax
  401905:	48 89 c7             	mov    %rax,%rdi
  401908:	e8 5d fc ff ff       	callq  40156a <std::vector<int, std::allocator<int> >::begin() const>
  40190d:	4c 89 f2             	mov    %r14,%rdx
  401910:	4c 89 ee             	mov    %r13,%rsi
  401913:	48 89 c7             	mov    %rax,%rdi
  401916:	e8 4f 05 00 00       	callq  401e6a <__gnu_cxx::__normal_iterator<int*, std::vector<int, std::allocator<int> > > std::copy<__gnu_cxx::__normal_iterator<int const*, std::vector<int, std::allocator<int> > >, __gnu_cxx::__normal_iterator<int*, std::vector<int, std::allocator<int> > > >(__gnu_cxx::__normal_iterator<int const*, std::vector<int, std::allocator<int> > >, __gnu_cxx::__normal_iterator<int const*, std::vector<int, std::allocator<int> > >, __gnu_cxx::__normal_iterator<int*, std::vector<int, std::allocator<int> > >)>
  40191b:	4c 89 e2             	mov    %r12,%rdx
  40191e:	48 89 de             	mov    %rbx,%rsi
  401921:	48 89 c7             	mov    %rax,%rdi
  401924:	e8 d9 05 00 00       	callq  401f02 <void std::_Destroy<__gnu_cxx::__normal_iterator<int*, std::vector<int, std::allocator<int> > >, int>(__gnu_cxx::__normal_iterator<int*, std::vector<int, std::allocator<int> > >, __gnu_cxx::__normal_iterator<int*, std::vector<int, std::allocator<int> > >, std::allocator<int>&)>
  401929:	e9 81 00 00 00       	jmpq   4019af <std::vector<int, std::allocator<int> >::operator=(std::vector<int, std::allocator<int> > const&)+0x2eb>
  40192e:	48 8b 45 c8          	mov    -0x38(%rbp),%rax
  401932:	48 8b 18             	mov    (%rax),%rbx
  401935:	48 8b 45 c0          	mov    -0x40(%rbp),%rax
  401939:	4c 8b 20             	mov    (%rax),%r12
  40193c:	48 8b 45 c8          	mov    -0x38(%rbp),%rax
  401940:	48 89 c7             	mov    %rax,%rdi
  401943:	e8 a2 fb ff ff       	callq  4014ea <std::vector<int, std::allocator<int> >::size() const>
  401948:	48 c1 e0 02          	shl    $0x2,%rax
  40194c:	49 8d 0c 04          	lea    (%r12,%rax,1),%rcx
  401950:	48 8b 45 c0          	mov    -0x40(%rbp),%rax
  401954:	48 8b 00             	mov    (%rax),%rax
  401957:	48 89 da             	mov    %rbx,%rdx
  40195a:	48 89 ce             	mov    %rcx,%rsi
  40195d:	48 89 c7             	mov    %rax,%rdi
  401960:	e8 c7 05 00 00       	callq  401f2c <int* std::copy<int*, int*>(int*, int*, int*)>
  401965:	48 8b 45 c8          	mov    -0x38(%rbp),%rax
  401969:	48 89 c7             	mov    %rax,%rdi
  40196c:	e8 9f fa ff ff       	callq  401410 <std::_Vector_base<int, std::allocator<int> >::_M_get_Tp_allocator()>
  401971:	49 89 c6             	mov    %rax,%r14
  401974:	48 8b 45 c8          	mov    -0x38(%rbp),%rax
  401978:	4c 8b 60 08          	mov    0x8(%rax),%r12
  40197c:	48 8b 45 c0          	mov    -0x40(%rbp),%rax
  401980:	48 8b 58 08          	mov    0x8(%rax),%rbx
  401984:	48 8b 45 c0          	mov    -0x40(%rbp),%rax
  401988:	4c 8b 28             	mov    (%rax),%r13
  40198b:	48 8b 45 c8          	mov    -0x38(%rbp),%rax
  40198f:	48 89 c7             	mov    %rax,%rdi
  401992:	e8 53 fb ff ff       	callq  4014ea <std::vector<int, std::allocator<int> >::size() const>
  401997:	48 c1 e0 02          	shl    $0x2,%rax
  40199b:	4c 01 e8             	add    %r13,%rax
  40199e:	4c 89 f1             	mov    %r14,%rcx
  4019a1:	4c 89 e2             	mov    %r12,%rdx
  4019a4:	48 89 de             	mov    %rbx,%rsi
  4019a7:	48 89 c7             	mov    %rax,%rdi
  4019aa:	e8 c9 05 00 00       	callq  401f78 <int* std::__uninitialized_copy_a<int*, int*, int>(int*, int*, int*, std::allocator<int>&)>
  4019af:	48 8b 45 c8          	mov    -0x38(%rbp),%rax
  4019b3:	48 8b 00             	mov    (%rax),%rax
  4019b6:	48 8b 55 d0          	mov    -0x30(%rbp),%rdx
  4019ba:	48 c1 e2 02          	shl    $0x2,%rdx
  4019be:	48 01 c2             	add    %rax,%rdx
  4019c1:	48 8b 45 c8          	mov    -0x38(%rbp),%rax
  4019c5:	48 89 50 08          	mov    %rdx,0x8(%rax)
  4019c9:	48 8b 45 c8          	mov    -0x38(%rbp),%rax
  4019cd:	48 83 c4 20          	add    $0x20,%rsp
  4019d1:	5b                   	pop    %rbx
  4019d2:	41 5c                	pop    %r12
  4019d4:	41 5d                	pop    %r13
  4019d6:	41 5e                	pop    %r14
  4019d8:	5d                   	pop    %rbp
  4019d9:	c3                   	retq   

00000000004019da <std::_Vector_base<int, std::allocator<int> >::_Vector_impl::_Vector_impl(std::allocator<int> const&)>:
  4019da:	55                   	push   %rbp
  4019db:	48 89 e5             	mov    %rsp,%rbp
  4019de:	48 83 ec 10          	sub    $0x10,%rsp
  4019e2:	48 89 7d f8          	mov    %rdi,-0x8(%rbp)
  4019e6:	48 89 75 f0          	mov    %rsi,-0x10(%rbp)
  4019ea:	48 8b 55 f0          	mov    -0x10(%rbp),%rdx
  4019ee:	48 8b 45 f8          	mov    -0x8(%rbp),%rax
  4019f2:	48 89 d6             	mov    %rdx,%rsi
  4019f5:	48 89 c7             	mov    %rax,%rdi
  4019f8:	e8 f5 01 00 00       	callq  401bf2 <std::allocator<int>::allocator(std::allocator<int> const&)>
  4019fd:	48 8b 45 f8          	mov    -0x8(%rbp),%rax
  401a01:	48 c7 00 00 00 00 00 	movq   $0x0,(%rax)
  401a08:	48 8b 45 f8          	mov    -0x8(%rbp),%rax
  401a0c:	48 c7 40 08 00 00 00 	movq   $0x0,0x8(%rax)
  401a13:	00 
  401a14:	48 8b 45 f8          	mov    -0x8(%rbp),%rax
  401a18:	48 c7 40 10 00 00 00 	movq   $0x0,0x10(%rax)
  401a1f:	00 
  401a20:	90                   	nop
  401a21:	c9                   	leaveq 
  401a22:	c3                   	retq   
  401a23:	90                   	nop

0000000000401a24 <std::_Vector_base<int, std::allocator<int> >::_M_deallocate(int*, unsigned long)>:
  401a24:	55                   	push   %rbp
  401a25:	48 89 e5             	mov    %rsp,%rbp
  401a28:	48 83 ec 20          	sub    $0x20,%rsp
  401a2c:	48 89 7d f8          	mov    %rdi,-0x8(%rbp)
  401a30:	48 89 75 f0          	mov    %rsi,-0x10(%rbp)
  401a34:	48 89 55 e8          	mov    %rdx,-0x18(%rbp)
  401a38:	48 83 7d f0 00       	cmpq   $0x0,-0x10(%rbp)
  401a3d:	74 17                	je     401a56 <std::_Vector_base<int, std::allocator<int> >::_M_deallocate(int*, unsigned long)+0x32>
  401a3f:	48 8b 45 f8          	mov    -0x8(%rbp),%rax
  401a43:	48 8b 55 e8          	mov    -0x18(%rbp),%rdx
  401a47:	48 8b 4d f0          	mov    -0x10(%rbp),%rcx
  401a4b:	48 89 ce             	mov    %rcx,%rsi
  401a4e:	48 89 c7             	mov    %rax,%rdi
  401a51:	e8 53 05 00 00       	callq  401fa9 <std::allocator_traits<std::allocator<int> >::deallocate(std::allocator<int>&, int*, unsigned long)>
  401a56:	90                   	nop
  401a57:	c9                   	leaveq 
  401a58:	c3                   	retq   

0000000000401a59 <std::iterator_traits<int const*>::difference_type std::distance<int const*>(int const*, int const*)>:
  401a59:	55                   	push   %rbp
  401a5a:	48 89 e5             	mov    %rsp,%rbp
  401a5d:	53                   	push   %rbx
  401a5e:	48 83 ec 28          	sub    $0x28,%rsp
  401a62:	48 89 7d d8          	mov    %rdi,-0x28(%rbp)
  401a66:	48 89 75 d0          	mov    %rsi,-0x30(%rbp)
  401a6a:	64 48 8b 04 25 28 00 	mov    %fs:0x28,%rax
  401a71:	00 00 
  401a73:	48 89 45 e8          	mov    %rax,-0x18(%rbp)
  401a77:	31 c0                	xor    %eax,%eax
  401a79:	48 8d 45 d8          	lea    -0x28(%rbp),%rax
  401a7d:	48 89 c7             	mov    %rax,%rdi
  401a80:	e8 52 05 00 00       	callq  401fd7 <std::iterator_traits<int const*>::iterator_category std::__iterator_category<int const*>(int const* const&)>
  401a85:	48 8b 45 d8          	mov    -0x28(%rbp),%rax
  401a89:	48 8b 55 d0          	mov    -0x30(%rbp),%rdx
  401a8d:	48 83 ec 08          	sub    $0x8,%rsp
  401a91:	53                   	push   %rbx
  401a92:	48 89 d6             	mov    %rdx,%rsi
  401a95:	48 89 c7             	mov    %rax,%rdi
  401a98:	e8 44 05 00 00       	callq  401fe1 <std::iterator_traits<int const*>::difference_type std::__distance<int const*>(int const*, int const*, std::random_access_iterator_tag)>
  401a9d:	48 83 c4 10          	add    $0x10,%rsp
  401aa1:	48 8b 4d e8          	mov    -0x18(%rbp),%rcx
  401aa5:	64 48 33 0c 25 28 00 	xor    %fs:0x28,%rcx
  401aac:	00 00 
  401aae:	74 05                	je     401ab5 <std::iterator_traits<int const*>::difference_type std::distance<int const*>(int const*, int const*)+0x5c>
  401ab0:	e8 5b f0 ff ff       	callq  400b10 <__stack_chk_fail@plt>
  401ab5:	48 8b 5d f8          	mov    -0x8(%rbp),%rbx
  401ab9:	c9                   	leaveq 
  401aba:	c3                   	retq   
  401abb:	90                   	nop

0000000000401abc <std::_Vector_base<int, std::allocator<int> >::_M_allocate(unsigned long)>:
  401abc:	55                   	push   %rbp
  401abd:	48 89 e5             	mov    %rsp,%rbp
  401ac0:	48 83 ec 10          	sub    $0x10,%rsp
  401ac4:	48 89 7d f8          	mov    %rdi,-0x8(%rbp)
  401ac8:	48 89 75 f0          	mov    %rsi,-0x10(%rbp)
  401acc:	48 83 7d f0 00       	cmpq   $0x0,-0x10(%rbp)
  401ad1:	74 15                	je     401ae8 <std::_Vector_base<int, std::allocator<int> >::_M_allocate(unsigned long)+0x2c>
  401ad3:	48 8b 45 f8          	mov    -0x8(%rbp),%rax
  401ad7:	48 8b 55 f0          	mov    -0x10(%rbp),%rdx
  401adb:	48 89 d6             	mov    %rdx,%rsi
  401ade:	48 89 c7             	mov    %rax,%rdi
  401ae1:	e8 1b 05 00 00       	callq  402001 <std::allocator_traits<std::allocator<int> >::allocate(std::allocator<int>&, unsigned long)>
  401ae6:	eb 05                	jmp    401aed <std::_Vector_base<int, std::allocator<int> >::_M_allocate(unsigned long)+0x31>
  401ae8:	b8 00 00 00 00       	mov    $0x0,%eax
  401aed:	c9                   	leaveq 
  401aee:	c3                   	retq   

0000000000401aef <int* std::__uninitialized_copy_a<int const*, int*, int>(int const*, int const*, int*, std::allocator<int>&)>:
  401aef:	55                   	push   %rbp
  401af0:	48 89 e5             	mov    %rsp,%rbp
  401af3:	48 83 ec 20          	sub    $0x20,%rsp
  401af7:	48 89 7d f8          	mov    %rdi,-0x8(%rbp)
  401afb:	48 89 75 f0          	mov    %rsi,-0x10(%rbp)
  401aff:	48 89 55 e8          	mov    %rdx,-0x18(%rbp)
  401b03:	48 89 4d e0          	mov    %rcx,-0x20(%rbp)
  401b07:	48 8b 55 e8          	mov    -0x18(%rbp),%rdx
  401b0b:	48 8b 4d f0          	mov    -0x10(%rbp),%rcx
  401b0f:	48 8b 45 f8          	mov    -0x8(%rbp),%rax
  401b13:	48 89 ce             	mov    %rcx,%rsi
  401b16:	48 89 c7             	mov    %rax,%rdi
  401b19:	e8 0d 05 00 00       	callq  40202b <int* std::uninitialized_copy<int const*, int*>(int const*, int const*, int*)>
  401b1e:	c9                   	leaveq 
  401b1f:	c3                   	retq   

0000000000401b20 <void std::_Destroy<int*>(int*, int*)>:
  401b20:	55                   	push   %rbp
  401b21:	48 89 e5             	mov    %rsp,%rbp
  401b24:	48 83 ec 10          	sub    $0x10,%rsp
  401b28:	48 89 7d f8          	mov    %rdi,-0x8(%rbp)
  401b2c:	48 89 75 f0          	mov    %rsi,-0x10(%rbp)
  401b30:	48 8b 55 f0          	mov    -0x10(%rbp),%rdx
  401b34:	48 8b 45 f8          	mov    -0x8(%rbp),%rax
  401b38:	48 89 d6             	mov    %rdx,%rsi
  401b3b:	48 89 c7             	mov    %rax,%rdi
  401b3e:	e8 19 05 00 00       	callq  40205c <void std::_Destroy_aux<true>::__destroy<int*>(int*, int*)>
  401b43:	90                   	nop
  401b44:	c9                   	leaveq 
  401b45:	c3                   	retq   

0000000000401b46 <std::_Vector_base<int, std::allocator<int> >::_M_create_storage(unsigned long)>:
  401b46:	55                   	push   %rbp
  401b47:	48 89 e5             	mov    %rsp,%rbp
  401b4a:	48 83 ec 10          	sub    $0x10,%rsp
  401b4e:	48 89 7d f8          	mov    %rdi,-0x8(%rbp)
  401b52:	48 89 75 f0          	mov    %rsi,-0x10(%rbp)
  401b56:	48 8b 55 f0          	mov    -0x10(%rbp),%rdx
  401b5a:	48 8b 45 f8          	mov    -0x8(%rbp),%rax
  401b5e:	48 89 d6             	mov    %rdx,%rsi
  401b61:	48 89 c7             	mov    %rax,%rdi
  401b64:	e8 53 ff ff ff       	callq  401abc <std::_Vector_base<int, std::allocator<int> >::_M_allocate(unsigned long)>
  401b69:	48 89 c2             	mov    %rax,%rdx
  401b6c:	48 8b 45 f8          	mov    -0x8(%rbp),%rax
  401b70:	48 89 10             	mov    %rdx,(%rax)
  401b73:	48 8b 45 f8          	mov    -0x8(%rbp),%rax
  401b77:	48 8b 10             	mov    (%rax),%rdx
  401b7a:	48 8b 45 f8          	mov    -0x8(%rbp),%rax
  401b7e:	48 89 50 08          	mov    %rdx,0x8(%rax)
  401b82:	48 8b 45 f8          	mov    -0x8(%rbp),%rax
  401b86:	48 8b 00             	mov    (%rax),%rax
  401b89:	48 8b 55 f0          	mov    -0x10(%rbp),%rdx
  401b8d:	48 c1 e2 02          	shl    $0x2,%rdx
  401b91:	48 01 c2             	add    %rax,%rdx
  401b94:	48 8b 45 f8          	mov    -0x8(%rbp),%rax
  401b98:	48 89 50 10          	mov    %rdx,0x10(%rax)
  401b9c:	90                   	nop
  401b9d:	c9                   	leaveq 
  401b9e:	c3                   	retq   

0000000000401b9f <int* std::__uninitialized_default_n_a<int*, unsigned long, int>(int*, unsigned long, std::allocator<int>&)>:
  401b9f:	55                   	push   %rbp
  401ba0:	48 89 e5             	mov    %rsp,%rbp
  401ba3:	48 83 ec 20          	sub    $0x20,%rsp
  401ba7:	48 89 7d f8          	mov    %rdi,-0x8(%rbp)
  401bab:	48 89 75 f0          	mov    %rsi,-0x10(%rbp)
  401baf:	48 89 55 e8          	mov    %rdx,-0x18(%rbp)
  401bb3:	48 8b 55 f0          	mov    -0x10(%rbp),%rdx
  401bb7:	48 8b 45 f8          	mov    -0x8(%rbp),%rax
  401bbb:	48 89 d6             	mov    %rdx,%rsi
  401bbe:	48 89 c7             	mov    %rax,%rdi
  401bc1:	e8 a5 04 00 00       	callq  40206b <int* std::__uninitialized_default_n<int*, unsigned long>(int*, unsigned long)>
  401bc6:	c9                   	leaveq 
  401bc7:	c3                   	retq   

0000000000401bc8 <std::allocator_traits<std::allocator<int> >::select_on_container_copy_construction(std::allocator<int> const&)>:
  401bc8:	55                   	push   %rbp
  401bc9:	48 89 e5             	mov    %rsp,%rbp
  401bcc:	48 83 ec 10          	sub    $0x10,%rsp
  401bd0:	48 89 7d f8          	mov    %rdi,-0x8(%rbp)
  401bd4:	48 89 75 f0          	mov    %rsi,-0x10(%rbp)
  401bd8:	48 8b 55 f0          	mov    -0x10(%rbp),%rdx
  401bdc:	48 8b 45 f8          	mov    -0x8(%rbp),%rax
  401be0:	48 89 d6             	mov    %rdx,%rsi
  401be3:	48 89 c7             	mov    %rax,%rdi
  401be6:	e8 07 00 00 00       	callq  401bf2 <std::allocator<int>::allocator(std::allocator<int> const&)>
  401beb:	48 8b 45 f8          	mov    -0x8(%rbp),%rax
  401bef:	c9                   	leaveq 
  401bf0:	c3                   	retq   
  401bf1:	90                   	nop

0000000000401bf2 <std::allocator<int>::allocator(std::allocator<int> const&)>:
  401bf2:	55                   	push   %rbp
  401bf3:	48 89 e5             	mov    %rsp,%rbp
  401bf6:	48 83 ec 10          	sub    $0x10,%rsp
  401bfa:	48 89 7d f8          	mov    %rdi,-0x8(%rbp)
  401bfe:	48 89 75 f0          	mov    %rsi,-0x10(%rbp)
  401c02:	48 8b 55 f0          	mov    -0x10(%rbp),%rdx
  401c06:	48 8b 45 f8          	mov    -0x8(%rbp),%rax
  401c0a:	48 89 d6             	mov    %rdx,%rsi
  401c0d:	48 89 c7             	mov    %rax,%rdi
  401c10:	e8 7f 04 00 00       	callq  402094 <__gnu_cxx::new_allocator<int>::new_allocator(__gnu_cxx::new_allocator<int> const&)>
  401c15:	90                   	nop
  401c16:	c9                   	leaveq 
  401c17:	c3                   	retq   

0000000000401c18 <__gnu_cxx::__normal_iterator<int const*, std::vector<int, std::allocator<int> > >::__normal_iterator(int const* const&)>:
  401c18:	55                   	push   %rbp
  401c19:	48 89 e5             	mov    %rsp,%rbp
  401c1c:	48 89 7d f8          	mov    %rdi,-0x8(%rbp)
  401c20:	48 89 75 f0          	mov    %rsi,-0x10(%rbp)
  401c24:	48 8b 45 f0          	mov    -0x10(%rbp),%rax
  401c28:	48 8b 10             	mov    (%rax),%rdx
  401c2b:	48 8b 45 f8          	mov    -0x8(%rbp),%rax
  401c2f:	48 89 10             	mov    %rdx,(%rax)
  401c32:	90                   	nop
  401c33:	5d                   	pop    %rbp
  401c34:	c3                   	retq   

0000000000401c35 <int* std::uninitialized_copy<__gnu_cxx::__normal_iterator<int const*, std::vector<int, std::allocator<int> > >, int*>(__gnu_cxx::__normal_iterator<int const*, std::vector<int, std::allocator<int> > >, __gnu_cxx::__normal_iterator<int const*, std::vector<int, std::allocator<int> > >, int*)>:
  401c35:	55                   	push   %rbp
  401c36:	48 89 e5             	mov    %rsp,%rbp
  401c39:	48 83 ec 30          	sub    $0x30,%rsp
  401c3d:	48 89 7d e0          	mov    %rdi,-0x20(%rbp)
  401c41:	48 89 75 d0          	mov    %rsi,-0x30(%rbp)
  401c45:	48 89 55 d8          	mov    %rdx,-0x28(%rbp)
  401c49:	c6 45 ff 01          	movb   $0x1,-0x1(%rbp)
  401c4d:	48 8b 55 d8          	mov    -0x28(%rbp),%rdx
  401c51:	48 8b 4d d0          	mov    -0x30(%rbp),%rcx
  401c55:	48 8b 45 e0          	mov    -0x20(%rbp),%rax
  401c59:	48 89 ce             	mov    %rcx,%rsi
  401c5c:	48 89 c7             	mov    %rax,%rdi
  401c5f:	e8 3f 04 00 00       	callq  4020a3 <int* std::__uninitialized_copy<true>::__uninit_copy<__gnu_cxx::__normal_iterator<int const*, std::vector<int, std::allocator<int> > >, int*>(__gnu_cxx::__normal_iterator<int const*, std::vector<int, std::allocator<int> > >, __gnu_cxx::__normal_iterator<int const*, std::vector<int, std::allocator<int> > >, int*)>
  401c64:	c9                   	leaveq 
  401c65:	c3                   	retq   

0000000000401c66 <bool std::lexicographical_compare<__gnu_cxx::__normal_iterator<int const*, std::vector<int, std::allocator<int> > >, __gnu_cxx::__normal_iterator<int const*, std::vector<int, std::allocator<int> > > >(__gnu_cxx::__normal_iterator<int const*, std::vector<int, std::allocator<int> > >, __gnu_cxx::__normal_iterator<int const*, std::vector<int, std::allocator<int> > >, __gnu_cxx::__normal_iterator<int const*, std::vector<int, std::allocator<int> > >, __gnu_cxx::__normal_iterator<int const*, std::vector<int, std::allocator<int> > >)>:
  401c66:	55                   	push   %rbp
  401c67:	48 89 e5             	mov    %rsp,%rbp
  401c6a:	41 55                	push   %r13
  401c6c:	41 54                	push   %r12
  401c6e:	53                   	push   %rbx
  401c6f:	48 83 ec 48          	sub    $0x48,%rsp
  401c73:	48 89 7d d0          	mov    %rdi,-0x30(%rbp)
  401c77:	48 89 75 c0          	mov    %rsi,-0x40(%rbp)
  401c7b:	48 89 55 b0          	mov    %rdx,-0x50(%rbp)
  401c7f:	48 89 4d a0          	mov    %rcx,-0x60(%rbp)
  401c83:	48 8b 45 a0          	mov    -0x60(%rbp),%rax
  401c87:	48 89 c7             	mov    %rax,%rdi
  401c8a:	e8 41 04 00 00       	callq  4020d0 <std::_Niter_base<__gnu_cxx::__normal_iterator<int const*, std::vector<int, std::allocator<int> > > >::iterator_type std::__niter_base<__gnu_cxx::__normal_iterator<int const*, std::vector<int, std::allocator<int> > > >(__gnu_cxx::__normal_iterator<int const*, std::vector<int, std::allocator<int> > >)>
  401c8f:	49 89 c5             	mov    %rax,%r13
  401c92:	48 8b 45 b0          	mov    -0x50(%rbp),%rax
  401c96:	48 89 c7             	mov    %rax,%rdi
  401c99:	e8 32 04 00 00       	callq  4020d0 <std::_Niter_base<__gnu_cxx::__normal_iterator<int const*, std::vector<int, std::allocator<int> > > >::iterator_type std::__niter_base<__gnu_cxx::__normal_iterator<int const*, std::vector<int, std::allocator<int> > > >(__gnu_cxx::__normal_iterator<int const*, std::vector<int, std::allocator<int> > >)>
  401c9e:	49 89 c4             	mov    %rax,%r12
  401ca1:	48 8b 45 c0          	mov    -0x40(%rbp),%rax
  401ca5:	48 89 c7             	mov    %rax,%rdi
  401ca8:	e8 23 04 00 00       	callq  4020d0 <std::_Niter_base<__gnu_cxx::__normal_iterator<int const*, std::vector<int, std::allocator<int> > > >::iterator_type std::__niter_base<__gnu_cxx::__normal_iterator<int const*, std::vector<int, std::allocator<int> > > >(__gnu_cxx::__normal_iterator<int const*, std::vector<int, std::allocator<int> > >)>
  401cad:	48 89 c3             	mov    %rax,%rbx
  401cb0:	48 8b 45 d0          	mov    -0x30(%rbp),%rax
  401cb4:	48 89 c7             	mov    %rax,%rdi
  401cb7:	e8 14 04 00 00       	callq  4020d0 <std::_Niter_base<__gnu_cxx::__normal_iterator<int const*, std::vector<int, std::allocator<int> > > >::iterator_type std::__niter_base<__gnu_cxx::__normal_iterator<int const*, std::vector<int, std::allocator<int> > > >(__gnu_cxx::__normal_iterator<int const*, std::vector<int, std::allocator<int> > >)>
  401cbc:	4c 89 e9             	mov    %r13,%rcx
  401cbf:	4c 89 e2             	mov    %r12,%rdx
  401cc2:	48 89 de             	mov    %rbx,%rsi
  401cc5:	48 89 c7             	mov    %rax,%rdi
  401cc8:	e8 1d 04 00 00       	callq  4020ea <bool std::__lexicographical_compare_aux<int const*, int const*>(int const*, int const*, int const*, int const*)>
  401ccd:	48 83 c4 48          	add    $0x48,%rsp
  401cd1:	5b                   	pop    %rbx
  401cd2:	41 5c                	pop    %r12
  401cd4:	41 5d                	pop    %r13
  401cd6:	5d                   	pop    %rbp
  401cd7:	c3                   	retq   

0000000000401cd8 <bool std::operator!=<int>(std::allocator<int> const&, std::allocator<int> const&)>:
  401cd8:	55                   	push   %rbp
  401cd9:	48 89 e5             	mov    %rsp,%rbp
  401cdc:	48 89 7d f8          	mov    %rdi,-0x8(%rbp)
  401ce0:	48 89 75 f0          	mov    %rsi,-0x10(%rbp)
  401ce4:	b8 00 00 00 00       	mov    $0x0,%eax
  401ce9:	5d                   	pop    %rbp
  401cea:	c3                   	retq   
  401ceb:	90                   	nop

0000000000401cec <std::vector<int, std::allocator<int> >::clear()>:
  401cec:	55                   	push   %rbp
  401ced:	48 89 e5             	mov    %rsp,%rbp
  401cf0:	48 83 ec 10          	sub    $0x10,%rsp
  401cf4:	48 89 7d f8          	mov    %rdi,-0x8(%rbp)
  401cf8:	48 8b 45 f8          	mov    -0x8(%rbp),%rax
  401cfc:	48 8b 10             	mov    (%rax),%rdx
  401cff:	48 8b 45 f8          	mov    -0x8(%rbp),%rax
  401d03:	48 89 d6             	mov    %rdx,%rsi
  401d06:	48 89 c7             	mov    %rax,%rdi
  401d09:	e8 12 04 00 00       	callq  402120 <std::vector<int, std::allocator<int> >::_M_erase_at_end(int*)>
  401d0e:	90                   	nop
  401d0f:	c9                   	leaveq 
  401d10:	c3                   	retq   

0000000000401d11 <void std::__alloc_on_copy<std::allocator<int> >(std::allocator<int>&, std::allocator<int> const&)>:
  401d11:	55                   	push   %rbp
  401d12:	48 89 e5             	mov    %rsp,%rbp
  401d15:	48 83 ec 20          	sub    $0x20,%rsp
  401d19:	48 89 7d e8          	mov    %rdi,-0x18(%rbp)
  401d1d:	48 89 75 e0          	mov    %rsi,-0x20(%rbp)
  401d21:	64 48 8b 04 25 28 00 	mov    %fs:0x28,%rax
  401d28:	00 00 
  401d2a:	48 89 45 f8          	mov    %rax,-0x8(%rbp)
  401d2e:	31 c0                	xor    %eax,%eax
  401d30:	48 8b 55 e0          	mov    -0x20(%rbp),%rdx
  401d34:	48 8b 45 e8          	mov    -0x18(%rbp),%rax
  401d38:	48 83 ec 08          	sub    $0x8,%rsp
  401d3c:	51                   	push   %rcx
  401d3d:	48 89 d6             	mov    %rdx,%rsi
  401d40:	48 89 c7             	mov    %rax,%rdi
  401d43:	e8 1d 04 00 00       	callq  402165 <void std::__do_alloc_on_copy<std::allocator<int> >(std::allocator<int>&, std::allocator<int> const&, std::integral_constant<bool, false>)>
  401d48:	48 83 c4 10          	add    $0x10,%rsp
  401d4c:	90                   	nop
  401d4d:	48 8b 45 f8          	mov    -0x8(%rbp),%rax
  401d51:	64 48 33 04 25 28 00 	xor    %fs:0x28,%rax
  401d58:	00 00 
  401d5a:	74 05                	je     401d61 <void std::__alloc_on_copy<std::allocator<int> >(std::allocator<int>&, std::allocator<int> const&)+0x50>
  401d5c:	e8 af ed ff ff       	callq  400b10 <__stack_chk_fail@plt>
  401d61:	c9                   	leaveq 
  401d62:	c3                   	retq   
  401d63:	90                   	nop

0000000000401d64 <std::vector<int, std::allocator<int> >::capacity() const>:
  401d64:	55                   	push   %rbp
  401d65:	48 89 e5             	mov    %rsp,%rbp
  401d68:	48 89 7d f8          	mov    %rdi,-0x8(%rbp)
  401d6c:	48 8b 45 f8          	mov    -0x8(%rbp),%rax
  401d70:	48 8b 40 10          	mov    0x10(%rax),%rax
  401d74:	48 89 c2             	mov    %rax,%rdx
  401d77:	48 8b 45 f8          	mov    -0x8(%rbp),%rax
  401d7b:	48 8b 00             	mov    (%rax),%rax
  401d7e:	48 29 c2             	sub    %rax,%rdx
  401d81:	48 89 d0             	mov    %rdx,%rax
  401d84:	48 c1 f8 02          	sar    $0x2,%rax
  401d88:	5d                   	pop    %rbp
  401d89:	c3                   	retq   

0000000000401d8a <int* std::vector<int, std::allocator<int> >::_M_allocate_and_copy<__gnu_cxx::__normal_iterator<int const*, std::vector<int, std::allocator<int> > > >(unsigned long, __gnu_cxx::__normal_iterator<int const*, std::vector<int, std::allocator<int> > >, __gnu_cxx::__normal_iterator<int const*, std::vector<int, std::allocator<int> > >)>:
  401d8a:	55                   	push   %rbp
  401d8b:	48 89 e5             	mov    %rsp,%rbp
  401d8e:	53                   	push   %rbx
  401d8f:	48 83 ec 48          	sub    $0x48,%rsp
  401d93:	48 89 7d d8          	mov    %rdi,-0x28(%rbp)
  401d97:	48 89 75 d0          	mov    %rsi,-0x30(%rbp)
  401d9b:	48 89 55 c0          	mov    %rdx,-0x40(%rbp)
  401d9f:	48 89 4d b0          	mov    %rcx,-0x50(%rbp)
  401da3:	48 8b 45 d8          	mov    -0x28(%rbp),%rax
  401da7:	48 8b 55 d0          	mov    -0x30(%rbp),%rdx
  401dab:	48 89 d6             	mov    %rdx,%rsi
  401dae:	48 89 c7             	mov    %rax,%rdi
  401db1:	e8 06 fd ff ff       	callq  401abc <std::_Vector_base<int, std::allocator<int> >::_M_allocate(unsigned long)>
  401db6:	48 89 45 e8          	mov    %rax,-0x18(%rbp)
  401dba:	48 8b 45 d8          	mov    -0x28(%rbp),%rax
  401dbe:	48 89 c7             	mov    %rax,%rdi
  401dc1:	e8 4a f6 ff ff       	callq  401410 <std::_Vector_base<int, std::allocator<int> >::_M_get_Tp_allocator()>
  401dc6:	48 89 c1             	mov    %rax,%rcx
  401dc9:	48 8b 55 e8          	mov    -0x18(%rbp),%rdx
  401dcd:	48 8b 75 b0          	mov    -0x50(%rbp),%rsi
  401dd1:	48 8b 45 c0          	mov    -0x40(%rbp),%rax
  401dd5:	48 89 c7             	mov    %rax,%rdi
  401dd8:	e8 35 f8 ff ff       	callq  401612 <int* std::__uninitialized_copy_a<__gnu_cxx::__normal_iterator<int const*, std::vector<int, std::allocator<int> > >, int*, int>(__gnu_cxx::__normal_iterator<int const*, std::vector<int, std::allocator<int> > >, __gnu_cxx::__normal_iterator<int const*, std::vector<int, std::allocator<int> > >, int*, std::allocator<int>&)>
  401ddd:	48 8b 45 e8          	mov    -0x18(%rbp),%rax
  401de1:	eb 37                	jmp    401e1a <int* std::vector<int, std::allocator<int> >::_M_allocate_and_copy<__gnu_cxx::__normal_iterator<int const*, std::vector<int, std::allocator<int> > > >(unsigned long, __gnu_cxx::__normal_iterator<int const*, std::vector<int, std::allocator<int> > >, __gnu_cxx::__normal_iterator<int const*, std::vector<int, std::allocator<int> > >)+0x90>
  401de3:	48 89 c7             	mov    %rax,%rdi
  401de6:	e8 85 ed ff ff       	callq  400b70 <__cxa_begin_catch@plt>
  401deb:	48 8b 45 d8          	mov    -0x28(%rbp),%rax
  401def:	48 8b 55 d0          	mov    -0x30(%rbp),%rdx
  401df3:	48 8b 4d e8          	mov    -0x18(%rbp),%rcx
  401df7:	48 89 ce             	mov    %rcx,%rsi
  401dfa:	48 89 c7             	mov    %rax,%rdi
  401dfd:	e8 22 fc ff ff       	callq  401a24 <std::_Vector_base<int, std::allocator<int> >::_M_deallocate(int*, unsigned long)>
  401e02:	e8 99 ec ff ff       	callq  400aa0 <__cxa_rethrow@plt>
  401e07:	48 89 c3             	mov    %rax,%rbx
  401e0a:	e8 31 ed ff ff       	callq  400b40 <__cxa_end_catch@plt>
  401e0f:	48 89 d8             	mov    %rbx,%rax
  401e12:	48 89 c7             	mov    %rax,%rdi
  401e15:	e8 86 ed ff ff       	callq  400ba0 <_Unwind_Resume@plt>
  401e1a:	48 83 c4 48          	add    $0x48,%rsp
  401e1e:	5b                   	pop    %rbx
  401e1f:	5d                   	pop    %rbp
  401e20:	c3                   	retq   
  401e21:	90                   	nop

0000000000401e22 <std::vector<int, std::allocator<int> >::begin()>:
  401e22:	55                   	push   %rbp
  401e23:	48 89 e5             	mov    %rsp,%rbp
  401e26:	48 83 ec 20          	sub    $0x20,%rsp
  401e2a:	48 89 7d e8          	mov    %rdi,-0x18(%rbp)
  401e2e:	64 48 8b 04 25 28 00 	mov    %fs:0x28,%rax
  401e35:	00 00 
  401e37:	48 89 45 f8          	mov    %rax,-0x8(%rbp)
  401e3b:	31 c0                	xor    %eax,%eax
  401e3d:	48 8b 55 e8          	mov    -0x18(%rbp),%rdx
  401e41:	48 8d 45 f0          	lea    -0x10(%rbp),%rax
  401e45:	48 89 d6             	mov    %rdx,%rsi
  401e48:	48 89 c7             	mov    %rax,%rdi
  401e4b:	e8 24 03 00 00       	callq  402174 <__gnu_cxx::__normal_iterator<int*, std::vector<int, std::allocator<int> > >::__normal_iterator(int* const&)>
  401e50:	48 8b 45 f0          	mov    -0x10(%rbp),%rax
  401e54:	48 8b 4d f8          	mov    -0x8(%rbp),%rcx
  401e58:	64 48 33 0c 25 28 00 	xor    %fs:0x28,%rcx
  401e5f:	00 00 
  401e61:	74 05                	je     401e68 <std::vector<int, std::allocator<int> >::begin()+0x46>
  401e63:	e8 a8 ec ff ff       	callq  400b10 <__stack_chk_fail@plt>
  401e68:	c9                   	leaveq 
  401e69:	c3                   	retq   

0000000000401e6a <__gnu_cxx::__normal_iterator<int*, std::vector<int, std::allocator<int> > > std::copy<__gnu_cxx::__normal_iterator<int const*, std::vector<int, std::allocator<int> > >, __gnu_cxx::__normal_iterator<int*, std::vector<int, std::allocator<int> > > >(__gnu_cxx::__normal_iterator<int const*, std::vector<int, std::allocator<int> > >, __gnu_cxx::__normal_iterator<int const*, std::vector<int, std::allocator<int> > >, __gnu_cxx::__normal_iterator<int*, std::vector<int, std::allocator<int> > >)>:
  401e6a:	55                   	push   %rbp
  401e6b:	48 89 e5             	mov    %rsp,%rbp
  401e6e:	53                   	push   %rbx
  401e6f:	48 83 ec 38          	sub    $0x38,%rsp
  401e73:	48 89 7d e0          	mov    %rdi,-0x20(%rbp)
  401e77:	48 89 75 d0          	mov    %rsi,-0x30(%rbp)
  401e7b:	48 89 55 c0          	mov    %rdx,-0x40(%rbp)
  401e7f:	48 8b 45 d0          	mov    -0x30(%rbp),%rax
  401e83:	48 89 c7             	mov    %rax,%rdi
  401e86:	e8 06 03 00 00       	callq  402191 <std::_Miter_base<__gnu_cxx::__normal_iterator<int const*, std::vector<int, std::allocator<int> > > >::iterator_type std::__miter_base<__gnu_cxx::__normal_iterator<int const*, std::vector<int, std::allocator<int> > > >(__gnu_cxx::__normal_iterator<int const*, std::vector<int, std::allocator<int> > >)>
  401e8b:	48 89 c3             	mov    %rax,%rbx
  401e8e:	48 8b 45 e0          	mov    -0x20(%rbp),%rax
  401e92:	48 89 c7             	mov    %rax,%rdi
  401e95:	e8 f7 02 00 00       	callq  402191 <std::_Miter_base<__gnu_cxx::__normal_iterator<int const*, std::vector<int, std::allocator<int> > > >::iterator_type std::__miter_base<__gnu_cxx::__normal_iterator<int const*, std::vector<int, std::allocator<int> > > >(__gnu_cxx::__normal_iterator<int const*, std::vector<int, std::allocator<int> > >)>
  401e9a:	48 89 c1             	mov    %rax,%rcx
  401e9d:	48 8b 45 c0          	mov    -0x40(%rbp),%rax
  401ea1:	48 89 c2             	mov    %rax,%rdx
  401ea4:	48 89 de             	mov    %rbx,%rsi
  401ea7:	48 89 cf             	mov    %rcx,%rdi
  401eaa:	e8 fc 02 00 00       	callq  4021ab <__gnu_cxx::__normal_iterator<int*, std::vector<int, std::allocator<int> > > std::__copy_move_a2<false, __gnu_cxx::__normal_iterator<int const*, std::vector<int, std::allocator<int> > >, __gnu_cxx::__normal_iterator<int*, std::vector<int, std::allocator<int> > > >(__gnu_cxx::__normal_iterator<int const*, std::vector<int, std::allocator<int> > >, __gnu_cxx::__normal_iterator<int const*, std::vector<int, std::allocator<int> > >, __gnu_cxx::__normal_iterator<int*, std::vector<int, std::allocator<int> > >)>
  401eaf:	48 83 c4 38          	add    $0x38,%rsp
  401eb3:	5b                   	pop    %rbx
  401eb4:	5d                   	pop    %rbp
  401eb5:	c3                   	retq   

0000000000401eb6 <std::vector<int, std::allocator<int> >::end()>:
  401eb6:	55                   	push   %rbp
  401eb7:	48 89 e5             	mov    %rsp,%rbp
  401eba:	48 83 ec 20          	sub    $0x20,%rsp
  401ebe:	48 89 7d e8          	mov    %rdi,-0x18(%rbp)
  401ec2:	64 48 8b 04 25 28 00 	mov    %fs:0x28,%rax
  401ec9:	00 00 
  401ecb:	48 89 45 f8          	mov    %rax,-0x8(%rbp)
  401ecf:	31 c0                	xor    %eax,%eax
  401ed1:	48 8b 45 e8          	mov    -0x18(%rbp),%rax
  401ed5:	48 8d 50 08          	lea    0x8(%rax),%rdx
  401ed9:	48 8d 45 f0          	lea    -0x10(%rbp),%rax
  401edd:	48 89 d6             	mov    %rdx,%rsi
  401ee0:	48 89 c7             	mov    %rax,%rdi
  401ee3:	e8 8c 02 00 00       	callq  402174 <__gnu_cxx::__normal_iterator<int*, std::vector<int, std::allocator<int> > >::__normal_iterator(int* const&)>
  401ee8:	48 8b 45 f0          	mov    -0x10(%rbp),%rax
  401eec:	48 8b 4d f8          	mov    -0x8(%rbp),%rcx
  401ef0:	64 48 33 0c 25 28 00 	xor    %fs:0x28,%rcx
  401ef7:	00 00 
  401ef9:	74 05                	je     401f00 <std::vector<int, std::allocator<int> >::end()+0x4a>
  401efb:	e8 10 ec ff ff       	callq  400b10 <__stack_chk_fail@plt>
  401f00:	c9                   	leaveq 
  401f01:	c3                   	retq   

0000000000401f02 <void std::_Destroy<__gnu_cxx::__normal_iterator<int*, std::vector<int, std::allocator<int> > >, int>(__gnu_cxx::__normal_iterator<int*, std::vector<int, std::allocator<int> > >, __gnu_cxx::__normal_iterator<int*, std::vector<int, std::allocator<int> > >, std::allocator<int>&)>:
  401f02:	55                   	push   %rbp
  401f03:	48 89 e5             	mov    %rsp,%rbp
  401f06:	48 83 ec 20          	sub    $0x20,%rsp
  401f0a:	48 89 7d f0          	mov    %rdi,-0x10(%rbp)
  401f0e:	48 89 75 e0          	mov    %rsi,-0x20(%rbp)
  401f12:	48 89 55 e8          	mov    %rdx,-0x18(%rbp)
  401f16:	48 8b 55 e0          	mov    -0x20(%rbp),%rdx
  401f1a:	48 8b 45 f0          	mov    -0x10(%rbp),%rax
  401f1e:	48 89 d6             	mov    %rdx,%rsi
  401f21:	48 89 c7             	mov    %rax,%rdi
  401f24:	e8 18 03 00 00       	callq  402241 <void std::_Destroy<__gnu_cxx::__normal_iterator<int*, std::vector<int, std::allocator<int> > > >(__gnu_cxx::__normal_iterator<int*, std::vector<int, std::allocator<int> > >, __gnu_cxx::__normal_iterator<int*, std::vector<int, std::allocator<int> > >)>
  401f29:	90                   	nop
  401f2a:	c9                   	leaveq 
  401f2b:	c3                   	retq   

0000000000401f2c <int* std::copy<int*, int*>(int*, int*, int*)>:
  401f2c:	55                   	push   %rbp
  401f2d:	48 89 e5             	mov    %rsp,%rbp
  401f30:	53                   	push   %rbx
  401f31:	48 83 ec 28          	sub    $0x28,%rsp
  401f35:	48 89 7d e8          	mov    %rdi,-0x18(%rbp)
  401f39:	48 89 75 e0          	mov    %rsi,-0x20(%rbp)
  401f3d:	48 89 55 d8          	mov    %rdx,-0x28(%rbp)
  401f41:	48 8b 45 e0          	mov    -0x20(%rbp),%rax
  401f45:	48 89 c7             	mov    %rax,%rdi
  401f48:	e8 1a 03 00 00       	callq  402267 <std::_Miter_base<int*>::iterator_type std::__miter_base<int*>(int*)>
  401f4d:	48 89 c3             	mov    %rax,%rbx
  401f50:	48 8b 45 e8          	mov    -0x18(%rbp),%rax
  401f54:	48 89 c7             	mov    %rax,%rdi
  401f57:	e8 0b 03 00 00       	callq  402267 <std::_Miter_base<int*>::iterator_type std::__miter_base<int*>(int*)>
  401f5c:	48 89 c1             	mov    %rax,%rcx
  401f5f:	48 8b 45 d8          	mov    -0x28(%rbp),%rax
  401f63:	48 89 c2             	mov    %rax,%rdx
  401f66:	48 89 de             	mov    %rbx,%rsi
  401f69:	48 89 cf             	mov    %rcx,%rdi
  401f6c:	e8 10 03 00 00       	callq  402281 <int* std::__copy_move_a2<false, int*, int*>(int*, int*, int*)>
  401f71:	48 83 c4 28          	add    $0x28,%rsp
  401f75:	5b                   	pop    %rbx
  401f76:	5d                   	pop    %rbp
  401f77:	c3                   	retq   

0000000000401f78 <int* std::__uninitialized_copy_a<int*, int*, int>(int*, int*, int*, std::allocator<int>&)>:
  401f78:	55                   	push   %rbp
  401f79:	48 89 e5             	mov    %rsp,%rbp
  401f7c:	48 83 ec 20          	sub    $0x20,%rsp
  401f80:	48 89 7d f8          	mov    %rdi,-0x8(%rbp)
  401f84:	48 89 75 f0          	mov    %rsi,-0x10(%rbp)
  401f88:	48 89 55 e8          	mov    %rdx,-0x18(%rbp)
  401f8c:	48 89 4d e0          	mov    %rcx,-0x20(%rbp)
  401f90:	48 8b 55 e8          	mov    -0x18(%rbp),%rdx
  401f94:	48 8b 4d f0          	mov    -0x10(%rbp),%rcx
  401f98:	48 8b 45 f8          	mov    -0x8(%rbp),%rax
  401f9c:	48 89 ce             	mov    %rcx,%rsi
  401f9f:	48 89 c7             	mov    %rax,%rdi
  401fa2:	e8 32 03 00 00       	callq  4022d9 <int* std::uninitialized_copy<int*, int*>(int*, int*, int*)>
  401fa7:	c9                   	leaveq 
  401fa8:	c3                   	retq   

0000000000401fa9 <std::allocator_traits<std::allocator<int> >::deallocate(std::allocator<int>&, int*, unsigned long)>:
  401fa9:	55                   	push   %rbp
  401faa:	48 89 e5             	mov    %rsp,%rbp
  401fad:	48 83 ec 20          	sub    $0x20,%rsp
  401fb1:	48 89 7d f8          	mov    %rdi,-0x8(%rbp)
  401fb5:	48 89 75 f0          	mov    %rsi,-0x10(%rbp)
  401fb9:	48 89 55 e8          	mov    %rdx,-0x18(%rbp)
  401fbd:	48 8b 55 e8          	mov    -0x18(%rbp),%rdx
  401fc1:	48 8b 4d f0          	mov    -0x10(%rbp),%rcx
  401fc5:	48 8b 45 f8          	mov    -0x8(%rbp),%rax
  401fc9:	48 89 ce             	mov    %rcx,%rsi
  401fcc:	48 89 c7             	mov    %rax,%rdi
  401fcf:	e8 36 03 00 00       	callq  40230a <__gnu_cxx::new_allocator<int>::deallocate(int*, unsigned long)>
  401fd4:	90                   	nop
  401fd5:	c9                   	leaveq 
  401fd6:	c3                   	retq   

0000000000401fd7 <std::iterator_traits<int const*>::iterator_category std::__iterator_category<int const*>(int const* const&)>:
  401fd7:	55                   	push   %rbp
  401fd8:	48 89 e5             	mov    %rsp,%rbp
  401fdb:	48 89 7d f8          	mov    %rdi,-0x8(%rbp)
  401fdf:	5d                   	pop    %rbp
  401fe0:	c3                   	retq   

0000000000401fe1 <std::iterator_traits<int const*>::difference_type std::__distance<int const*>(int const*, int const*, std::random_access_iterator_tag)>:
  401fe1:	55                   	push   %rbp
  401fe2:	48 89 e5             	mov    %rsp,%rbp
  401fe5:	48 89 7d f8          	mov    %rdi,-0x8(%rbp)
  401fe9:	48 89 75 f0          	mov    %rsi,-0x10(%rbp)
  401fed:	48 8b 55 f0          	mov    -0x10(%rbp),%rdx
  401ff1:	48 8b 45 f8          	mov    -0x8(%rbp),%rax
  401ff5:	48 29 c2             	sub    %rax,%rdx
  401ff8:	48 89 d0             	mov    %rdx,%rax
  401ffb:	48 c1 f8 02          	sar    $0x2,%rax
  401fff:	5d                   	pop    %rbp
  402000:	c3                   	retq   

0000000000402001 <std::allocator_traits<std::allocator<int> >::allocate(std::allocator<int>&, unsigned long)>:
  402001:	55                   	push   %rbp
  402002:	48 89 e5             	mov    %rsp,%rbp
  402005:	48 83 ec 10          	sub    $0x10,%rsp
  402009:	48 89 7d f8          	mov    %rdi,-0x8(%rbp)
  40200d:	48 89 75 f0          	mov    %rsi,-0x10(%rbp)
  402011:	48 8b 4d f0          	mov    -0x10(%rbp),%rcx
  402015:	48 8b 45 f8          	mov    -0x8(%rbp),%rax
  402019:	ba 00 00 00 00       	mov    $0x0,%edx
  40201e:	48 89 ce             	mov    %rcx,%rsi
  402021:	48 89 c7             	mov    %rax,%rdi
  402024:	e8 05 03 00 00       	callq  40232e <__gnu_cxx::new_allocator<int>::allocate(unsigned long, void const*)>
  402029:	c9                   	leaveq 
  40202a:	c3                   	retq   

000000000040202b <int* std::uninitialized_copy<int const*, int*>(int const*, int const*, int*)>:
  40202b:	55                   	push   %rbp
  40202c:	48 89 e5             	mov    %rsp,%rbp
  40202f:	48 83 ec 30          	sub    $0x30,%rsp
  402033:	48 89 7d e8          	mov    %rdi,-0x18(%rbp)
  402037:	48 89 75 e0          	mov    %rsi,-0x20(%rbp)
  40203b:	48 89 55 d8          	mov    %rdx,-0x28(%rbp)
  40203f:	c6 45 ff 01          	movb   $0x1,-0x1(%rbp)
  402043:	48 8b 55 d8          	mov    -0x28(%rbp),%rdx
  402047:	48 8b 4d e0          	mov    -0x20(%rbp),%rcx
  40204b:	48 8b 45 e8          	mov    -0x18(%rbp),%rax
  40204f:	48 89 ce             	mov    %rcx,%rsi
  402052:	48 89 c7             	mov    %rax,%rdi
  402055:	e8 16 03 00 00       	callq  402370 <int* std::__uninitialized_copy<true>::__uninit_copy<int const*, int*>(int const*, int const*, int*)>
  40205a:	c9                   	leaveq 
  40205b:	c3                   	retq   

000000000040205c <void std::_Destroy_aux<true>::__destroy<int*>(int*, int*)>:
  40205c:	55                   	push   %rbp
  40205d:	48 89 e5             	mov    %rsp,%rbp
  402060:	48 89 7d f8          	mov    %rdi,-0x8(%rbp)
  402064:	48 89 75 f0          	mov    %rsi,-0x10(%rbp)
  402068:	90                   	nop
  402069:	5d                   	pop    %rbp
  40206a:	c3                   	retq   

000000000040206b <int* std::__uninitialized_default_n<int*, unsigned long>(int*, unsigned long)>:
  40206b:	55                   	push   %rbp
  40206c:	48 89 e5             	mov    %rsp,%rbp
  40206f:	48 83 ec 20          	sub    $0x20,%rsp
  402073:	48 89 7d e8          	mov    %rdi,-0x18(%rbp)
  402077:	48 89 75 e0          	mov    %rsi,-0x20(%rbp)
  40207b:	c6 45 ff 01          	movb   $0x1,-0x1(%rbp)
  40207f:	48 8b 55 e0          	mov    -0x20(%rbp),%rdx
  402083:	48 8b 45 e8          	mov    -0x18(%rbp),%rax
  402087:	48 89 d6             	mov    %rdx,%rsi
  40208a:	48 89 c7             	mov    %rax,%rdi
  40208d:	e8 0b 03 00 00       	callq  40239d <int* std::__uninitialized_default_n_1<true>::__uninit_default_n<int*, unsigned long>(int*, unsigned long)>
  402092:	c9                   	leaveq 
  402093:	c3                   	retq   

0000000000402094 <__gnu_cxx::new_allocator<int>::new_allocator(__gnu_cxx::new_allocator<int> const&)>:
  402094:	55                   	push   %rbp
  402095:	48 89 e5             	mov    %rsp,%rbp
  402098:	48 89 7d f8          	mov    %rdi,-0x8(%rbp)
  40209c:	48 89 75 f0          	mov    %rsi,-0x10(%rbp)
  4020a0:	90                   	nop
  4020a1:	5d                   	pop    %rbp
  4020a2:	c3                   	retq   

00000000004020a3 <int* std::__uninitialized_copy<true>::__uninit_copy<__gnu_cxx::__normal_iterator<int const*, std::vector<int, std::allocator<int> > >, int*>(__gnu_cxx::__normal_iterator<int const*, std::vector<int, std::allocator<int> > >, __gnu_cxx::__normal_iterator<int const*, std::vector<int, std::allocator<int> > >, int*)>:
  4020a3:	55                   	push   %rbp
  4020a4:	48 89 e5             	mov    %rsp,%rbp
  4020a7:	48 83 ec 20          	sub    $0x20,%rsp
  4020ab:	48 89 7d f0          	mov    %rdi,-0x10(%rbp)
  4020af:	48 89 75 e0          	mov    %rsi,-0x20(%rbp)
  4020b3:	48 89 55 e8          	mov    %rdx,-0x18(%rbp)
  4020b7:	48 8b 55 e8          	mov    -0x18(%rbp),%rdx
  4020bb:	48 8b 4d e0          	mov    -0x20(%rbp),%rcx
  4020bf:	48 8b 45 f0          	mov    -0x10(%rbp),%rax
  4020c3:	48 89 ce             	mov    %rcx,%rsi
  4020c6:	48 89 c7             	mov    %rax,%rdi
  4020c9:	e8 22 03 00 00       	callq  4023f0 <int* std::copy<__gnu_cxx::__normal_iterator<int const*, std::vector<int, std::allocator<int> > >, int*>(__gnu_cxx::__normal_iterator<int const*, std::vector<int, std::allocator<int> > >, __gnu_cxx::__normal_iterator<int const*, std::vector<int, std::allocator<int> > >, int*)>
  4020ce:	c9                   	leaveq 
  4020cf:	c3                   	retq   

00000000004020d0 <std::_Niter_base<__gnu_cxx::__normal_iterator<int const*, std::vector<int, std::allocator<int> > > >::iterator_type std::__niter_base<__gnu_cxx::__normal_iterator<int const*, std::vector<int, std::allocator<int> > > >(__gnu_cxx::__normal_iterator<int const*, std::vector<int, std::allocator<int> > >)>:
  4020d0:	55                   	push   %rbp
  4020d1:	48 89 e5             	mov    %rsp,%rbp
  4020d4:	48 83 ec 10          	sub    $0x10,%rsp
  4020d8:	48 89 7d f0          	mov    %rdi,-0x10(%rbp)
  4020dc:	48 8b 45 f0          	mov    -0x10(%rbp),%rax
  4020e0:	48 89 c7             	mov    %rax,%rdi
  4020e3:	e8 54 03 00 00       	callq  40243c <std::_Iter_base<__gnu_cxx::__normal_iterator<int const*, std::vector<int, std::allocator<int> > >, true>::_S_base(__gnu_cxx::__normal_iterator<int const*, std::vector<int, std::allocator<int> > >)>
  4020e8:	c9                   	leaveq 
  4020e9:	c3                   	retq   

00000000004020ea <bool std::__lexicographical_compare_aux<int const*, int const*>(int const*, int const*, int const*, int const*)>:
  4020ea:	55                   	push   %rbp
  4020eb:	48 89 e5             	mov    %rsp,%rbp
  4020ee:	48 83 ec 30          	sub    $0x30,%rsp
  4020f2:	48 89 7d e8          	mov    %rdi,-0x18(%rbp)
  4020f6:	48 89 75 e0          	mov    %rsi,-0x20(%rbp)
  4020fa:	48 89 55 d8          	mov    %rdx,-0x28(%rbp)
  4020fe:	48 89 4d d0          	mov    %rcx,-0x30(%rbp)
  402102:	c6 45 ff 00          	movb   $0x0,-0x1(%rbp)
  402106:	48 8b 4d d0          	mov    -0x30(%rbp),%rcx
  40210a:	48 8b 55 d8          	mov    -0x28(%rbp),%rdx
  40210e:	48 8b 75 e0          	mov    -0x20(%rbp),%rsi
  402112:	48 8b 45 e8          	mov    -0x18(%rbp),%rax
  402116:	48 89 c7             	mov    %rax,%rdi
  402119:	e8 3c 03 00 00       	callq  40245a <bool std::__lexicographical_compare<false>::__lc<int const*, int const*>(int const*, int const*, int const*, int const*)>
  40211e:	c9                   	leaveq 
  40211f:	c3                   	retq   

0000000000402120 <std::vector<int, std::allocator<int> >::_M_erase_at_end(int*)>:
  402120:	55                   	push   %rbp
  402121:	48 89 e5             	mov    %rsp,%rbp
  402124:	48 83 ec 10          	sub    $0x10,%rsp
  402128:	48 89 7d f8          	mov    %rdi,-0x8(%rbp)
  40212c:	48 89 75 f0          	mov    %rsi,-0x10(%rbp)
  402130:	48 8b 45 f8          	mov    -0x8(%rbp),%rax
  402134:	48 89 c7             	mov    %rax,%rdi
  402137:	e8 d4 f2 ff ff       	callq  401410 <std::_Vector_base<int, std::allocator<int> >::_M_get_Tp_allocator()>
  40213c:	48 89 c2             	mov    %rax,%rdx
  40213f:	48 8b 45 f8          	mov    -0x8(%rbp),%rax
  402143:	48 8b 48 08          	mov    0x8(%rax),%rcx
  402147:	48 8b 45 f0          	mov    -0x10(%rbp),%rax
  40214b:	48 89 ce             	mov    %rcx,%rsi
  40214e:	48 89 c7             	mov    %rax,%rdi
  402151:	e8 c8 f2 ff ff       	callq  40141e <void std::_Destroy<int*, int>(int*, int*, std::allocator<int>&)>
  402156:	48 8b 45 f8          	mov    -0x8(%rbp),%rax
  40215a:	48 8b 55 f0          	mov    -0x10(%rbp),%rdx
  40215e:	48 89 50 08          	mov    %rdx,0x8(%rax)
  402162:	90                   	nop
  402163:	c9                   	leaveq 
  402164:	c3                   	retq   

0000000000402165 <void std::__do_alloc_on_copy<std::allocator<int> >(std::allocator<int>&, std::allocator<int> const&, std::integral_constant<bool, false>)>:
  402165:	55                   	push   %rbp
  402166:	48 89 e5             	mov    %rsp,%rbp
  402169:	48 89 7d f8          	mov    %rdi,-0x8(%rbp)
  40216d:	48 89 75 f0          	mov    %rsi,-0x10(%rbp)
  402171:	90                   	nop
  402172:	5d                   	pop    %rbp
  402173:	c3                   	retq   

0000000000402174 <__gnu_cxx::__normal_iterator<int*, std::vector<int, std::allocator<int> > >::__normal_iterator(int* const&)>:
  402174:	55                   	push   %rbp
  402175:	48 89 e5             	mov    %rsp,%rbp
  402178:	48 89 7d f8          	mov    %rdi,-0x8(%rbp)
  40217c:	48 89 75 f0          	mov    %rsi,-0x10(%rbp)
  402180:	48 8b 45 f0          	mov    -0x10(%rbp),%rax
  402184:	48 8b 10             	mov    (%rax),%rdx
  402187:	48 8b 45 f8          	mov    -0x8(%rbp),%rax
  40218b:	48 89 10             	mov    %rdx,(%rax)
  40218e:	90                   	nop
  40218f:	5d                   	pop    %rbp
  402190:	c3                   	retq   

0000000000402191 <std::_Miter_base<__gnu_cxx::__normal_iterator<int const*, std::vector<int, std::allocator<int> > > >::iterator_type std::__miter_base<__gnu_cxx::__normal_iterator<int const*, std::vector<int, std::allocator<int> > > >(__gnu_cxx::__normal_iterator<int const*, std::vector<int, std::allocator<int> > >)>:
  402191:	55                   	push   %rbp
  402192:	48 89 e5             	mov    %rsp,%rbp
  402195:	48 83 ec 10          	sub    $0x10,%rsp
  402199:	48 89 7d f0          	mov    %rdi,-0x10(%rbp)
  40219d:	48 8b 45 f0          	mov    -0x10(%rbp),%rax
  4021a1:	48 89 c7             	mov    %rax,%rdi
  4021a4:	e8 19 03 00 00       	callq  4024c2 <std::_Iter_base<__gnu_cxx::__normal_iterator<int const*, std::vector<int, std::allocator<int> > >, false>::_S_base(__gnu_cxx::__normal_iterator<int const*, std::vector<int, std::allocator<int> > >)>
  4021a9:	c9                   	leaveq 
  4021aa:	c3                   	retq   

00000000004021ab <__gnu_cxx::__normal_iterator<int*, std::vector<int, std::allocator<int> > > std::__copy_move_a2<false, __gnu_cxx::__normal_iterator<int const*, std::vector<int, std::allocator<int> > >, __gnu_cxx::__normal_iterator<int*, std::vector<int, std::allocator<int> > > >(__gnu_cxx::__normal_iterator<int const*, std::vector<int, std::allocator<int> > >, __gnu_cxx::__normal_iterator<int const*, std::vector<int, std::allocator<int> > >, __gnu_cxx::__normal_iterator<int*, std::vector<int, std::allocator<int> > >)>:
  4021ab:	55                   	push   %rbp
  4021ac:	48 89 e5             	mov    %rsp,%rbp
  4021af:	41 54                	push   %r12
  4021b1:	53                   	push   %rbx
  4021b2:	48 83 ec 50          	sub    $0x50,%rsp
  4021b6:	48 89 7d c0          	mov    %rdi,-0x40(%rbp)
  4021ba:	48 89 75 b0          	mov    %rsi,-0x50(%rbp)
  4021be:	48 89 55 a0          	mov    %rdx,-0x60(%rbp)
  4021c2:	64 48 8b 04 25 28 00 	mov    %fs:0x28,%rax
  4021c9:	00 00 
  4021cb:	48 89 45 e8          	mov    %rax,-0x18(%rbp)
  4021cf:	31 c0                	xor    %eax,%eax
  4021d1:	48 8b 45 a0          	mov    -0x60(%rbp),%rax
  4021d5:	48 89 c7             	mov    %rax,%rdi
  4021d8:	e8 f3 02 00 00       	callq  4024d0 <std::_Niter_base<__gnu_cxx::__normal_iterator<int*, std::vector<int, std::allocator<int> > > >::iterator_type std::__niter_base<__gnu_cxx::__normal_iterator<int*, std::vector<int, std::allocator<int> > > >(__gnu_cxx::__normal_iterator<int*, std::vector<int, std::allocator<int> > >)>
  4021dd:	49 89 c4             	mov    %rax,%r12
  4021e0:	48 8b 45 b0          	mov    -0x50(%rbp),%rax
  4021e4:	48 89 c7             	mov    %rax,%rdi
  4021e7:	e8 e4 fe ff ff       	callq  4020d0 <std::_Niter_base<__gnu_cxx::__normal_iterator<int const*, std::vector<int, std::allocator<int> > > >::iterator_type std::__niter_base<__gnu_cxx::__normal_iterator<int const*, std::vector<int, std::allocator<int> > > >(__gnu_cxx::__normal_iterator<int const*, std::vector<int, std::allocator<int> > >)>
  4021ec:	48 89 c3             	mov    %rax,%rbx
  4021ef:	48 8b 45 c0          	mov    -0x40(%rbp),%rax
  4021f3:	48 89 c7             	mov    %rax,%rdi
  4021f6:	e8 d5 fe ff ff       	callq  4020d0 <std::_Niter_base<__gnu_cxx::__normal_iterator<int const*, std::vector<int, std::allocator<int> > > >::iterator_type std::__niter_base<__gnu_cxx::__normal_iterator<int const*, std::vector<int, std::allocator<int> > > >(__gnu_cxx::__normal_iterator<int const*, std::vector<int, std::allocator<int> > >)>
  4021fb:	4c 89 e2             	mov    %r12,%rdx
  4021fe:	48 89 de             	mov    %rbx,%rsi
  402201:	48 89 c7             	mov    %rax,%rdi
  402204:	e8 e1 02 00 00       	callq  4024ea <int* std::__copy_move_a<false, int const*, int*>(int const*, int const*, int*)>
  402209:	48 89 45 e0          	mov    %rax,-0x20(%rbp)
  40220d:	48 8d 55 e0          	lea    -0x20(%rbp),%rdx
  402211:	48 8d 45 d0          	lea    -0x30(%rbp),%rax
  402215:	48 89 d6             	mov    %rdx,%rsi
  402218:	48 89 c7             	mov    %rax,%rdi
  40221b:	e8 54 ff ff ff       	callq  402174 <__gnu_cxx::__normal_iterator<int*, std::vector<int, std::allocator<int> > >::__normal_iterator(int* const&)>
  402220:	48 8b 45 d0          	mov    -0x30(%rbp),%rax
  402224:	48 8b 4d e8          	mov    -0x18(%rbp),%rcx
  402228:	64 48 33 0c 25 28 00 	xor    %fs:0x28,%rcx
  40222f:	00 00 
  402231:	74 05                	je     402238 <__gnu_cxx::__normal_iterator<int*, std::vector<int, std::allocator<int> > > std::__copy_move_a2<false, __gnu_cxx::__normal_iterator<int const*, std::vector<int, std::allocator<int> > >, __gnu_cxx::__normal_iterator<int*, std::vector<int, std::allocator<int> > > >(__gnu_cxx::__normal_iterator<int const*, std::vector<int, std::allocator<int> > >, __gnu_cxx::__normal_iterator<int const*, std::vector<int, std::allocator<int> > >, __gnu_cxx::__normal_iterator<int*, std::vector<int, std::allocator<int> > >)+0x8d>
  402233:	e8 d8 e8 ff ff       	callq  400b10 <__stack_chk_fail@plt>
  402238:	48 83 c4 50          	add    $0x50,%rsp
  40223c:	5b                   	pop    %rbx
  40223d:	41 5c                	pop    %r12
  40223f:	5d                   	pop    %rbp
  402240:	c3                   	retq   

0000000000402241 <void std::_Destroy<__gnu_cxx::__normal_iterator<int*, std::vector<int, std::allocator<int> > > >(__gnu_cxx::__normal_iterator<int*, std::vector<int, std::allocator<int> > >, __gnu_cxx::__normal_iterator<int*, std::vector<int, std::allocator<int> > >)>:
  402241:	55                   	push   %rbp
  402242:	48 89 e5             	mov    %rsp,%rbp
  402245:	48 83 ec 20          	sub    $0x20,%rsp
  402249:	48 89 7d f0          	mov    %rdi,-0x10(%rbp)
  40224d:	48 89 75 e0          	mov    %rsi,-0x20(%rbp)
  402251:	48 8b 55 e0          	mov    -0x20(%rbp),%rdx
  402255:	48 8b 45 f0          	mov    -0x10(%rbp),%rax
  402259:	48 89 d6             	mov    %rdx,%rsi
  40225c:	48 89 c7             	mov    %rax,%rdi
  40225f:	e8 b7 02 00 00       	callq  40251b <void std::_Destroy_aux<true>::__destroy<__gnu_cxx::__normal_iterator<int*, std::vector<int, std::allocator<int> > > >(__gnu_cxx::__normal_iterator<int*, std::vector<int, std::allocator<int> > >, __gnu_cxx::__normal_iterator<int*, std::vector<int, std::allocator<int> > >)>
  402264:	90                   	nop
  402265:	c9                   	leaveq 
  402266:	c3                   	retq   

0000000000402267 <std::_Miter_base<int*>::iterator_type std::__miter_base<int*>(int*)>:
  402267:	55                   	push   %rbp
  402268:	48 89 e5             	mov    %rsp,%rbp
  40226b:	48 83 ec 10          	sub    $0x10,%rsp
  40226f:	48 89 7d f8          	mov    %rdi,-0x8(%rbp)
  402273:	48 8b 45 f8          	mov    -0x8(%rbp),%rax
  402277:	48 89 c7             	mov    %rax,%rdi
  40227a:	e8 ab 02 00 00       	callq  40252a <std::_Iter_base<int*, false>::_S_base(int*)>
  40227f:	c9                   	leaveq 
  402280:	c3                   	retq   

0000000000402281 <int* std::__copy_move_a2<false, int*, int*>(int*, int*, int*)>:
  402281:	55                   	push   %rbp
  402282:	48 89 e5             	mov    %rsp,%rbp
  402285:	41 54                	push   %r12
  402287:	53                   	push   %rbx
  402288:	48 83 ec 20          	sub    $0x20,%rsp
  40228c:	48 89 7d e8          	mov    %rdi,-0x18(%rbp)
  402290:	48 89 75 e0          	mov    %rsi,-0x20(%rbp)
  402294:	48 89 55 d8          	mov    %rdx,-0x28(%rbp)
  402298:	48 8b 45 d8          	mov    -0x28(%rbp),%rax
  40229c:	48 89 c7             	mov    %rax,%rdi
  40229f:	e8 94 02 00 00       	callq  402538 <std::_Niter_base<int*>::iterator_type std::__niter_base<int*>(int*)>
  4022a4:	49 89 c4             	mov    %rax,%r12
  4022a7:	48 8b 45 e0          	mov    -0x20(%rbp),%rax
  4022ab:	48 89 c7             	mov    %rax,%rdi
  4022ae:	e8 85 02 00 00       	callq  402538 <std::_Niter_base<int*>::iterator_type std::__niter_base<int*>(int*)>
  4022b3:	48 89 c3             	mov    %rax,%rbx
  4022b6:	48 8b 45 e8          	mov    -0x18(%rbp),%rax
  4022ba:	48 89 c7             	mov    %rax,%rdi
  4022bd:	e8 76 02 00 00       	callq  402538 <std::_Niter_base<int*>::iterator_type std::__niter_base<int*>(int*)>
  4022c2:	4c 89 e2             	mov    %r12,%rdx
  4022c5:	48 89 de             	mov    %rbx,%rsi
  4022c8:	48 89 c7             	mov    %rax,%rdi
  4022cb:	e8 82 02 00 00       	callq  402552 <int* std::__copy_move_a<false, int*, int*>(int*, int*, int*)>
  4022d0:	48 83 c4 20          	add    $0x20,%rsp
  4022d4:	5b                   	pop    %rbx
  4022d5:	41 5c                	pop    %r12
  4022d7:	5d                   	pop    %rbp
  4022d8:	c3                   	retq   

00000000004022d9 <int* std::uninitialized_copy<int*, int*>(int*, int*, int*)>:
  4022d9:	55                   	push   %rbp
  4022da:	48 89 e5             	mov    %rsp,%rbp
  4022dd:	48 83 ec 30          	sub    $0x30,%rsp
  4022e1:	48 89 7d e8          	mov    %rdi,-0x18(%rbp)
  4022e5:	48 89 75 e0          	mov    %rsi,-0x20(%rbp)
  4022e9:	48 89 55 d8          	mov    %rdx,-0x28(%rbp)
  4022ed:	c6 45 ff 01          	movb   $0x1,-0x1(%rbp)
  4022f1:	48 8b 55 d8          	mov    -0x28(%rbp),%rdx
  4022f5:	48 8b 4d e0          	mov    -0x20(%rbp),%rcx
  4022f9:	48 8b 45 e8          	mov    -0x18(%rbp),%rax
  4022fd:	48 89 ce             	mov    %rcx,%rsi
  402300:	48 89 c7             	mov    %rax,%rdi
  402303:	e8 7b 02 00 00       	callq  402583 <int* std::__uninitialized_copy<true>::__uninit_copy<int*, int*>(int*, int*, int*)>
  402308:	c9                   	leaveq 
  402309:	c3                   	retq   

000000000040230a <__gnu_cxx::new_allocator<int>::deallocate(int*, unsigned long)>:
  40230a:	55                   	push   %rbp
  40230b:	48 89 e5             	mov    %rsp,%rbp
  40230e:	48 83 ec 20          	sub    $0x20,%rsp
  402312:	48 89 7d f8          	mov    %rdi,-0x8(%rbp)
  402316:	48 89 75 f0          	mov    %rsi,-0x10(%rbp)
  40231a:	48 89 55 e8          	mov    %rdx,-0x18(%rbp)
  40231e:	48 8b 45 f0          	mov    -0x10(%rbp),%rax
  402322:	48 89 c7             	mov    %rax,%rdi
  402325:	e8 66 e7 ff ff       	callq  400a90 <operator delete(void*)@plt>
  40232a:	90                   	nop
  40232b:	c9                   	leaveq 
  40232c:	c3                   	retq   
  40232d:	90                   	nop

000000000040232e <__gnu_cxx::new_allocator<int>::allocate(unsigned long, void const*)>:
  40232e:	55                   	push   %rbp
  40232f:	48 89 e5             	mov    %rsp,%rbp
  402332:	48 83 ec 20          	sub    $0x20,%rsp
  402336:	48 89 7d f8          	mov    %rdi,-0x8(%rbp)
  40233a:	48 89 75 f0          	mov    %rsi,-0x10(%rbp)
  40233e:	48 89 55 e8          	mov    %rdx,-0x18(%rbp)
  402342:	48 8b 45 f8          	mov    -0x8(%rbp),%rax
  402346:	48 89 c7             	mov    %rax,%rdi
  402349:	e8 62 02 00 00       	callq  4025b0 <__gnu_cxx::new_allocator<int>::max_size() const>
  40234e:	48 3b 45 f0          	cmp    -0x10(%rbp),%rax
  402352:	0f 92 c0             	setb   %al
  402355:	84 c0                	test   %al,%al
  402357:	74 05                	je     40235e <__gnu_cxx::new_allocator<int>::allocate(unsigned long, void const*)+0x30>
  402359:	e8 f2 e7 ff ff       	callq  400b50 <std::__throw_bad_alloc()@plt>
  40235e:	48 8b 45 f0          	mov    -0x10(%rbp),%rax
  402362:	48 c1 e0 02          	shl    $0x2,%rax
  402366:	48 89 c7             	mov    %rax,%rdi
  402369:	e8 22 e8 ff ff       	callq  400b90 <operator new(unsigned long)@plt>
  40236e:	c9                   	leaveq 
  40236f:	c3                   	retq   

0000000000402370 <int* std::__uninitialized_copy<true>::__uninit_copy<int const*, int*>(int const*, int const*, int*)>:
  402370:	55                   	push   %rbp
  402371:	48 89 e5             	mov    %rsp,%rbp
  402374:	48 83 ec 20          	sub    $0x20,%rsp
  402378:	48 89 7d f8          	mov    %rdi,-0x8(%rbp)
  40237c:	48 89 75 f0          	mov    %rsi,-0x10(%rbp)
  402380:	48 89 55 e8          	mov    %rdx,-0x18(%rbp)
  402384:	48 8b 55 e8          	mov    -0x18(%rbp),%rdx
  402388:	48 8b 4d f0          	mov    -0x10(%rbp),%rcx
  40238c:	48 8b 45 f8          	mov    -0x8(%rbp),%rax
  402390:	48 89 ce             	mov    %rcx,%rsi
  402393:	48 89 c7             	mov    %rax,%rdi
  402396:	e8 29 02 00 00       	callq  4025c4 <int* std::copy<int const*, int*>(int const*, int const*, int*)>
  40239b:	c9                   	leaveq 
  40239c:	c3                   	retq   

000000000040239d <int* std::__uninitialized_default_n_1<true>::__uninit_default_n<int*, unsigned long>(int*, unsigned long)>:
  40239d:	55                   	push   %rbp
  40239e:	48 89 e5             	mov    %rsp,%rbp
  4023a1:	48 83 ec 20          	sub    $0x20,%rsp
  4023a5:	48 89 7d e8          	mov    %rdi,-0x18(%rbp)
  4023a9:	48 89 75 e0          	mov    %rsi,-0x20(%rbp)
  4023ad:	64 48 8b 04 25 28 00 	mov    %fs:0x28,%rax
  4023b4:	00 00 
  4023b6:	48 89 45 f8          	mov    %rax,-0x8(%rbp)
  4023ba:	31 c0                	xor    %eax,%eax
  4023bc:	c7 45 f4 00 00 00 00 	movl   $0x0,-0xc(%rbp)
  4023c3:	48 8d 55 f4          	lea    -0xc(%rbp),%rdx
  4023c7:	48 8b 4d e0          	mov    -0x20(%rbp),%rcx
  4023cb:	48 8b 45 e8          	mov    -0x18(%rbp),%rax
  4023cf:	48 89 ce             	mov    %rcx,%rsi
  4023d2:	48 89 c7             	mov    %rax,%rdi
  4023d5:	e8 36 02 00 00       	callq  402610 <int* std::fill_n<int*, unsigned long, int>(int*, unsigned long, int const&)>
  4023da:	48 8b 4d f8          	mov    -0x8(%rbp),%rcx
  4023de:	64 48 33 0c 25 28 00 	xor    %fs:0x28,%rcx
  4023e5:	00 00 
  4023e7:	74 05                	je     4023ee <int* std::__uninitialized_default_n_1<true>::__uninit_default_n<int*, unsigned long>(int*, unsigned long)+0x51>
  4023e9:	e8 22 e7 ff ff       	callq  400b10 <__stack_chk_fail@plt>
  4023ee:	c9                   	leaveq 
  4023ef:	c3                   	retq   

00000000004023f0 <int* std::copy<__gnu_cxx::__normal_iterator<int const*, std::vector<int, std::allocator<int> > >, int*>(__gnu_cxx::__normal_iterator<int const*, std::vector<int, std::allocator<int> > >, __gnu_cxx::__normal_iterator<int const*, std::vector<int, std::allocator<int> > >, int*)>:
  4023f0:	55                   	push   %rbp
  4023f1:	48 89 e5             	mov    %rsp,%rbp
  4023f4:	53                   	push   %rbx
  4023f5:	48 83 ec 28          	sub    $0x28,%rsp
  4023f9:	48 89 7d e0          	mov    %rdi,-0x20(%rbp)
  4023fd:	48 89 75 d0          	mov    %rsi,-0x30(%rbp)
  402401:	48 89 55 d8          	mov    %rdx,-0x28(%rbp)
  402405:	48 8b 45 d0          	mov    -0x30(%rbp),%rax
  402409:	48 89 c7             	mov    %rax,%rdi
  40240c:	e8 80 fd ff ff       	callq  402191 <std::_Miter_base<__gnu_cxx::__normal_iterator<int const*, std::vector<int, std::allocator<int> > > >::iterator_type std::__miter_base<__gnu_cxx::__normal_iterator<int const*, std::vector<int, std::allocator<int> > > >(__gnu_cxx::__normal_iterator<int const*, std::vector<int, std::allocator<int> > >)>
  402411:	48 89 c3             	mov    %rax,%rbx
  402414:	48 8b 45 e0          	mov    -0x20(%rbp),%rax
  402418:	48 89 c7             	mov    %rax,%rdi
  40241b:	e8 71 fd ff ff       	callq  402191 <std::_Miter_base<__gnu_cxx::__normal_iterator<int const*, std::vector<int, std::allocator<int> > > >::iterator_type std::__miter_base<__gnu_cxx::__normal_iterator<int const*, std::vector<int, std::allocator<int> > > >(__gnu_cxx::__normal_iterator<int const*, std::vector<int, std::allocator<int> > >)>
  402420:	48 89 c1             	mov    %rax,%rcx
  402423:	48 8b 45 d8          	mov    -0x28(%rbp),%rax
  402427:	48 89 c2             	mov    %rax,%rdx
  40242a:	48 89 de             	mov    %rbx,%rsi
  40242d:	48 89 cf             	mov    %rcx,%rdi
  402430:	e8 13 02 00 00       	callq  402648 <int* std::__copy_move_a2<false, __gnu_cxx::__normal_iterator<int const*, std::vector<int, std::allocator<int> > >, int*>(__gnu_cxx::__normal_iterator<int const*, std::vector<int, std::allocator<int> > >, __gnu_cxx::__normal_iterator<int const*, std::vector<int, std::allocator<int> > >, int*)>
  402435:	48 83 c4 28          	add    $0x28,%rsp
  402439:	5b                   	pop    %rbx
  40243a:	5d                   	pop    %rbp
  40243b:	c3                   	retq   

000000000040243c <std::_Iter_base<__gnu_cxx::__normal_iterator<int const*, std::vector<int, std::allocator<int> > >, true>::_S_base(__gnu_cxx::__normal_iterator<int const*, std::vector<int, std::allocator<int> > >)>:
  40243c:	55                   	push   %rbp
  40243d:	48 89 e5             	mov    %rsp,%rbp
  402440:	48 83 ec 10          	sub    $0x10,%rsp
  402444:	48 89 7d f0          	mov    %rdi,-0x10(%rbp)
  402448:	48 8d 45 f0          	lea    -0x10(%rbp),%rax
  40244c:	48 89 c7             	mov    %rax,%rdi
  40244f:	e8 4c 02 00 00       	callq  4026a0 <__gnu_cxx::__normal_iterator<int const*, std::vector<int, std::allocator<int> > >::base() const>
  402454:	48 8b 00             	mov    (%rax),%rax
  402457:	c9                   	leaveq 
  402458:	c3                   	retq   
  402459:	90                   	nop

000000000040245a <bool std::__lexicographical_compare<false>::__lc<int const*, int const*>(int const*, int const*, int const*, int const*)>:
  40245a:	55                   	push   %rbp
  40245b:	48 89 e5             	mov    %rsp,%rbp
  40245e:	53                   	push   %rbx
  40245f:	48 83 ec 38          	sub    $0x38,%rsp
  402463:	48 89 7d d8          	mov    %rdi,-0x28(%rbp)
  402467:	48 89 75 d0          	mov    %rsi,-0x30(%rbp)
  40246b:	48 89 55 c8          	mov    %rdx,-0x38(%rbp)
  40246f:	48 89 4d c0          	mov    %rcx,-0x40(%rbp)
  402473:	64 48 8b 04 25 28 00 	mov    %fs:0x28,%rax
  40247a:	00 00 
  40247c:	48 89 45 e8          	mov    %rax,-0x18(%rbp)
  402480:	31 c0                	xor    %eax,%eax
  402482:	e8 a7 ea ff ff       	callq  400f2e <__gnu_cxx::__ops::__iter_less_iter()>
  402487:	48 8b 4d c0          	mov    -0x40(%rbp),%rcx
  40248b:	48 8b 55 c8          	mov    -0x38(%rbp),%rdx
  40248f:	48 8b 75 d0          	mov    -0x30(%rbp),%rsi
  402493:	48 8b 45 d8          	mov    -0x28(%rbp),%rax
  402497:	48 83 ec 08          	sub    $0x8,%rsp
  40249b:	53                   	push   %rbx
  40249c:	48 89 c7             	mov    %rax,%rdi
  40249f:	e8 0a 02 00 00       	callq  4026ae <bool std::__lexicographical_compare_impl<int const*, int const*, __gnu_cxx::__ops::_Iter_less_iter>(int const*, int const*, int const*, int const*, __gnu_cxx::__ops::_Iter_less_iter)>
  4024a4:	48 83 c4 10          	add    $0x10,%rsp
  4024a8:	48 8b 5d e8          	mov    -0x18(%rbp),%rbx
  4024ac:	64 48 33 1c 25 28 00 	xor    %fs:0x28,%rbx
  4024b3:	00 00 
  4024b5:	74 05                	je     4024bc <bool std::__lexicographical_compare<false>::__lc<int const*, int const*>(int const*, int const*, int const*, int const*)+0x62>
  4024b7:	e8 54 e6 ff ff       	callq  400b10 <__stack_chk_fail@plt>
  4024bc:	48 8b 5d f8          	mov    -0x8(%rbp),%rbx
  4024c0:	c9                   	leaveq 
  4024c1:	c3                   	retq   

00000000004024c2 <std::_Iter_base<__gnu_cxx::__normal_iterator<int const*, std::vector<int, std::allocator<int> > >, false>::_S_base(__gnu_cxx::__normal_iterator<int const*, std::vector<int, std::allocator<int> > >)>:
  4024c2:	55                   	push   %rbp
  4024c3:	48 89 e5             	mov    %rsp,%rbp
  4024c6:	48 89 7d f0          	mov    %rdi,-0x10(%rbp)
  4024ca:	48 8b 45 f0          	mov    -0x10(%rbp),%rax
  4024ce:	5d                   	pop    %rbp
  4024cf:	c3                   	retq   

00000000004024d0 <std::_Niter_base<__gnu_cxx::__normal_iterator<int*, std::vector<int, std::allocator<int> > > >::iterator_type std::__niter_base<__gnu_cxx::__normal_iterator<int*, std::vector<int, std::allocator<int> > > >(__gnu_cxx::__normal_iterator<int*, std::vector<int, std::allocator<int> > >)>:
  4024d0:	55                   	push   %rbp
  4024d1:	48 89 e5             	mov    %rsp,%rbp
  4024d4:	48 83 ec 10          	sub    $0x10,%rsp
  4024d8:	48 89 7d f0          	mov    %rdi,-0x10(%rbp)
  4024dc:	48 8b 45 f0          	mov    -0x10(%rbp),%rax
  4024e0:	48 89 c7             	mov    %rax,%rdi
  4024e3:	e8 97 02 00 00       	callq  40277f <std::_Iter_base<__gnu_cxx::__normal_iterator<int*, std::vector<int, std::allocator<int> > >, true>::_S_base(__gnu_cxx::__normal_iterator<int*, std::vector<int, std::allocator<int> > >)>
  4024e8:	c9                   	leaveq 
  4024e9:	c3                   	retq   

00000000004024ea <int* std::__copy_move_a<false, int const*, int*>(int const*, int const*, int*)>:
  4024ea:	55                   	push   %rbp
  4024eb:	48 89 e5             	mov    %rsp,%rbp
  4024ee:	48 83 ec 30          	sub    $0x30,%rsp
  4024f2:	48 89 7d e8          	mov    %rdi,-0x18(%rbp)
  4024f6:	48 89 75 e0          	mov    %rsi,-0x20(%rbp)
  4024fa:	48 89 55 d8          	mov    %rdx,-0x28(%rbp)
  4024fe:	c6 45 ff 01          	movb   $0x1,-0x1(%rbp)
  402502:	48 8b 55 d8          	mov    -0x28(%rbp),%rdx
  402506:	48 8b 4d e0          	mov    -0x20(%rbp),%rcx
  40250a:	48 8b 45 e8          	mov    -0x18(%rbp),%rax
  40250e:	48 89 ce             	mov    %rcx,%rsi
  402511:	48 89 c7             	mov    %rax,%rdi
  402514:	e8 83 02 00 00       	callq  40279c <int* std::__copy_move<false, true, std::random_access_iterator_tag>::__copy_m<int>(int const*, int const*, int*)>
  402519:	c9                   	leaveq 
  40251a:	c3                   	retq   

000000000040251b <void std::_Destroy_aux<true>::__destroy<__gnu_cxx::__normal_iterator<int*, std::vector<int, std::allocator<int> > > >(__gnu_cxx::__normal_iterator<int*, std::vector<int, std::allocator<int> > >, __gnu_cxx::__normal_iterator<int*, std::vector<int, std::allocator<int> > >)>:
  40251b:	55                   	push   %rbp
  40251c:	48 89 e5             	mov    %rsp,%rbp
  40251f:	48 89 7d f0          	mov    %rdi,-0x10(%rbp)
  402523:	48 89 75 e0          	mov    %rsi,-0x20(%rbp)
  402527:	90                   	nop
  402528:	5d                   	pop    %rbp
  402529:	c3                   	retq   

000000000040252a <std::_Iter_base<int*, false>::_S_base(int*)>:
  40252a:	55                   	push   %rbp
  40252b:	48 89 e5             	mov    %rsp,%rbp
  40252e:	48 89 7d f8          	mov    %rdi,-0x8(%rbp)
  402532:	48 8b 45 f8          	mov    -0x8(%rbp),%rax
  402536:	5d                   	pop    %rbp
  402537:	c3                   	retq   

0000000000402538 <std::_Niter_base<int*>::iterator_type std::__niter_base<int*>(int*)>:
  402538:	55                   	push   %rbp
  402539:	48 89 e5             	mov    %rsp,%rbp
  40253c:	48 83 ec 10          	sub    $0x10,%rsp
  402540:	48 89 7d f8          	mov    %rdi,-0x8(%rbp)
  402544:	48 8b 45 f8          	mov    -0x8(%rbp),%rax
  402548:	48 89 c7             	mov    %rax,%rdi
  40254b:	e8 da ff ff ff       	callq  40252a <std::_Iter_base<int*, false>::_S_base(int*)>
  402550:	c9                   	leaveq 
  402551:	c3                   	retq   

0000000000402552 <int* std::__copy_move_a<false, int*, int*>(int*, int*, int*)>:
  402552:	55                   	push   %rbp
  402553:	48 89 e5             	mov    %rsp,%rbp
  402556:	48 83 ec 30          	sub    $0x30,%rsp
  40255a:	48 89 7d e8          	mov    %rdi,-0x18(%rbp)
  40255e:	48 89 75 e0          	mov    %rsi,-0x20(%rbp)
  402562:	48 89 55 d8          	mov    %rdx,-0x28(%rbp)
  402566:	c6 45 ff 01          	movb   $0x1,-0x1(%rbp)
  40256a:	48 8b 55 d8          	mov    -0x28(%rbp),%rdx
  40256e:	48 8b 4d e0          	mov    -0x20(%rbp),%rcx
  402572:	48 8b 45 e8          	mov    -0x18(%rbp),%rax
  402576:	48 89 ce             	mov    %rcx,%rsi
  402579:	48 89 c7             	mov    %rax,%rdi
  40257c:	e8 1b 02 00 00       	callq  40279c <int* std::__copy_move<false, true, std::random_access_iterator_tag>::__copy_m<int>(int const*, int const*, int*)>
  402581:	c9                   	leaveq 
  402582:	c3                   	retq   

0000000000402583 <int* std::__uninitialized_copy<true>::__uninit_copy<int*, int*>(int*, int*, int*)>:
  402583:	55                   	push   %rbp
  402584:	48 89 e5             	mov    %rsp,%rbp
  402587:	48 83 ec 20          	sub    $0x20,%rsp
  40258b:	48 89 7d f8          	mov    %rdi,-0x8(%rbp)
  40258f:	48 89 75 f0          	mov    %rsi,-0x10(%rbp)
  402593:	48 89 55 e8          	mov    %rdx,-0x18(%rbp)
  402597:	48 8b 55 e8          	mov    -0x18(%rbp),%rdx
  40259b:	48 8b 4d f0          	mov    -0x10(%rbp),%rcx
  40259f:	48 8b 45 f8          	mov    -0x8(%rbp),%rax
  4025a3:	48 89 ce             	mov    %rcx,%rsi
  4025a6:	48 89 c7             	mov    %rax,%rdi
  4025a9:	e8 7e f9 ff ff       	callq  401f2c <int* std::copy<int*, int*>(int*, int*, int*)>
  4025ae:	c9                   	leaveq 
  4025af:	c3                   	retq   

00000000004025b0 <__gnu_cxx::new_allocator<int>::max_size() const>:
  4025b0:	55                   	push   %rbp
  4025b1:	48 89 e5             	mov    %rsp,%rbp
  4025b4:	48 89 7d f8          	mov    %rdi,-0x8(%rbp)
  4025b8:	48 b8 ff ff ff ff ff 	movabs $0x3fffffffffffffff,%rax
  4025bf:	ff ff 3f 
  4025c2:	5d                   	pop    %rbp
  4025c3:	c3                   	retq   

00000000004025c4 <int* std::copy<int const*, int*>(int const*, int const*, int*)>:
  4025c4:	55                   	push   %rbp
  4025c5:	48 89 e5             	mov    %rsp,%rbp
  4025c8:	53                   	push   %rbx
  4025c9:	48 83 ec 28          	sub    $0x28,%rsp
  4025cd:	48 89 7d e8          	mov    %rdi,-0x18(%rbp)
  4025d1:	48 89 75 e0          	mov    %rsi,-0x20(%rbp)
  4025d5:	48 89 55 d8          	mov    %rdx,-0x28(%rbp)
  4025d9:	48 8b 45 e0          	mov    -0x20(%rbp),%rax
  4025dd:	48 89 c7             	mov    %rax,%rdi
  4025e0:	e8 1c 02 00 00       	callq  402801 <std::_Miter_base<int const*>::iterator_type std::__miter_base<int const*>(int const*)>
  4025e5:	48 89 c3             	mov    %rax,%rbx
  4025e8:	48 8b 45 e8          	mov    -0x18(%rbp),%rax
  4025ec:	48 89 c7             	mov    %rax,%rdi
  4025ef:	e8 0d 02 00 00       	callq  402801 <std::_Miter_base<int const*>::iterator_type std::__miter_base<int const*>(int const*)>
  4025f4:	48 89 c1             	mov    %rax,%rcx
  4025f7:	48 8b 45 d8          	mov    -0x28(%rbp),%rax
  4025fb:	48 89 c2             	mov    %rax,%rdx
  4025fe:	48 89 de             	mov    %rbx,%rsi
  402601:	48 89 cf             	mov    %rcx,%rdi
  402604:	e8 12 02 00 00       	callq  40281b <int* std::__copy_move_a2<false, int const*, int*>(int const*, int const*, int*)>
  402609:	48 83 c4 28          	add    $0x28,%rsp
  40260d:	5b                   	pop    %rbx
  40260e:	5d                   	pop    %rbp
  40260f:	c3                   	retq   

0000000000402610 <int* std::fill_n<int*, unsigned long, int>(int*, unsigned long, int const&)>:
  402610:	55                   	push   %rbp
  402611:	48 89 e5             	mov    %rsp,%rbp
  402614:	48 83 ec 20          	sub    $0x20,%rsp
  402618:	48 89 7d f8          	mov    %rdi,-0x8(%rbp)
  40261c:	48 89 75 f0          	mov    %rsi,-0x10(%rbp)
  402620:	48 89 55 e8          	mov    %rdx,-0x18(%rbp)
  402624:	48 8b 45 f8          	mov    -0x8(%rbp),%rax
  402628:	48 89 c7             	mov    %rax,%rdi
  40262b:	e8 08 ff ff ff       	callq  402538 <std::_Niter_base<int*>::iterator_type std::__niter_base<int*>(int*)>
  402630:	48 89 c1             	mov    %rax,%rcx
  402633:	48 8b 55 e8          	mov    -0x18(%rbp),%rdx
  402637:	48 8b 45 f0          	mov    -0x10(%rbp),%rax
  40263b:	48 89 c6             	mov    %rax,%rsi
  40263e:	48 89 cf             	mov    %rcx,%rdi
  402641:	e8 2d 02 00 00       	callq  402873 <__gnu_cxx::__enable_if<std::__is_scalar<int>::__value, int*>::__type std::__fill_n_a<int*, unsigned long, int>(int*, unsigned long, int const&)>
  402646:	c9                   	leaveq 
  402647:	c3                   	retq   

0000000000402648 <int* std::__copy_move_a2<false, __gnu_cxx::__normal_iterator<int const*, std::vector<int, std::allocator<int> > >, int*>(__gnu_cxx::__normal_iterator<int const*, std::vector<int, std::allocator<int> > >, __gnu_cxx::__normal_iterator<int const*, std::vector<int, std::allocator<int> > >, int*)>:
  402648:	55                   	push   %rbp
  402649:	48 89 e5             	mov    %rsp,%rbp
  40264c:	41 54                	push   %r12
  40264e:	53                   	push   %rbx
  40264f:	48 83 ec 20          	sub    $0x20,%rsp
  402653:	48 89 7d e0          	mov    %rdi,-0x20(%rbp)
  402657:	48 89 75 d0          	mov    %rsi,-0x30(%rbp)
  40265b:	48 89 55 d8          	mov    %rdx,-0x28(%rbp)
  40265f:	48 8b 45 d8          	mov    -0x28(%rbp),%rax
  402663:	48 89 c7             	mov    %rax,%rdi
  402666:	e8 cd fe ff ff       	callq  402538 <std::_Niter_base<int*>::iterator_type std::__niter_base<int*>(int*)>
  40266b:	49 89 c4             	mov    %rax,%r12
  40266e:	48 8b 45 d0          	mov    -0x30(%rbp),%rax
  402672:	48 89 c7             	mov    %rax,%rdi
  402675:	e8 56 fa ff ff       	callq  4020d0 <std::_Niter_base<__gnu_cxx::__normal_iterator<int const*, std::vector<int, std::allocator<int> > > >::iterator_type std::__niter_base<__gnu_cxx::__normal_iterator<int const*, std::vector<int, std::allocator<int> > > >(__gnu_cxx::__normal_iterator<int const*, std::vector<int, std::allocator<int> > >)>
  40267a:	48 89 c3             	mov    %rax,%rbx
  40267d:	48 8b 45 e0          	mov    -0x20(%rbp),%rax
  402681:	48 89 c7             	mov    %rax,%rdi
  402684:	e8 47 fa ff ff       	callq  4020d0 <std::_Niter_base<__gnu_cxx::__normal_iterator<int const*, std::vector<int, std::allocator<int> > > >::iterator_type std::__niter_base<__gnu_cxx::__normal_iterator<int const*, std::vector<int, std::allocator<int> > > >(__gnu_cxx::__normal_iterator<int const*, std::vector<int, std::allocator<int> > >)>
  402689:	4c 89 e2             	mov    %r12,%rdx
  40268c:	48 89 de             	mov    %rbx,%rsi
  40268f:	48 89 c7             	mov    %rax,%rdi
  402692:	e8 53 fe ff ff       	callq  4024ea <int* std::__copy_move_a<false, int const*, int*>(int const*, int const*, int*)>
  402697:	48 83 c4 20          	add    $0x20,%rsp
  40269b:	5b                   	pop    %rbx
  40269c:	41 5c                	pop    %r12
  40269e:	5d                   	pop    %rbp
  40269f:	c3                   	retq   

00000000004026a0 <__gnu_cxx::__normal_iterator<int const*, std::vector<int, std::allocator<int> > >::base() const>:
  4026a0:	55                   	push   %rbp
  4026a1:	48 89 e5             	mov    %rsp,%rbp
  4026a4:	48 89 7d f8          	mov    %rdi,-0x8(%rbp)
  4026a8:	48 8b 45 f8          	mov    -0x8(%rbp),%rax
  4026ac:	5d                   	pop    %rbp
  4026ad:	c3                   	retq   

00000000004026ae <bool std::__lexicographical_compare_impl<int const*, int const*, __gnu_cxx::__ops::_Iter_less_iter>(int const*, int const*, int const*, int const*, __gnu_cxx::__ops::_Iter_less_iter)>:
  4026ae:	55                   	push   %rbp
  4026af:	48 89 e5             	mov    %rsp,%rbp
  4026b2:	48 83 ec 20          	sub    $0x20,%rsp
  4026b6:	48 89 7d f8          	mov    %rdi,-0x8(%rbp)
  4026ba:	48 89 75 f0          	mov    %rsi,-0x10(%rbp)
  4026be:	48 89 55 e8          	mov    %rdx,-0x18(%rbp)
  4026c2:	48 89 4d e0          	mov    %rcx,-0x20(%rbp)
  4026c6:	48 8b 4d e0          	mov    -0x20(%rbp),%rcx
  4026ca:	48 8b 55 e8          	mov    -0x18(%rbp),%rdx
  4026ce:	48 8b 75 f0          	mov    -0x10(%rbp),%rsi
  4026d2:	48 8b 45 f8          	mov    -0x8(%rbp),%rax
  4026d6:	48 89 c7             	mov    %rax,%rdi
  4026d9:	e8 d8 01 00 00       	callq  4028b6 <int const* std::__lc_rai<std::random_access_iterator_tag, std::random_access_iterator_tag>::__newlast1<int const*, int const*>(int const*, int const*, int const*, int const*)>
  4026de:	48 89 45 f0          	mov    %rax,-0x10(%rbp)
  4026e2:	48 8b 45 f8          	mov    -0x8(%rbp),%rax
  4026e6:	48 3b 45 f0          	cmp    -0x10(%rbp),%rax
  4026ea:	74 1e                	je     40270a <bool std::__lexicographical_compare_impl<int const*, int const*, __gnu_cxx::__ops::_Iter_less_iter>(int const*, int const*, int const*, int const*, __gnu_cxx::__ops::_Iter_less_iter)+0x5c>
  4026ec:	48 8b 55 e0          	mov    -0x20(%rbp),%rdx
  4026f0:	48 8b 45 e8          	mov    -0x18(%rbp),%rax
  4026f4:	48 89 d6             	mov    %rdx,%rsi
  4026f7:	48 89 c7             	mov    %rax,%rdi
  4026fa:	e8 1c 02 00 00       	callq  40291b <bool std::__lc_rai<std::random_access_iterator_tag, std::random_access_iterator_tag>::__cnd2<int const*>(int const*, int const*)>
  4026ff:	84 c0                	test   %al,%al
  402701:	74 07                	je     40270a <bool std::__lexicographical_compare_impl<int const*, int const*, __gnu_cxx::__ops::_Iter_less_iter>(int const*, int const*, int const*, int const*, __gnu_cxx::__ops::_Iter_less_iter)+0x5c>
  402703:	b8 01 00 00 00       	mov    $0x1,%eax
  402708:	eb 05                	jmp    40270f <bool std::__lexicographical_compare_impl<int const*, int const*, __gnu_cxx::__ops::_Iter_less_iter>(int const*, int const*, int const*, int const*, __gnu_cxx::__ops::_Iter_less_iter)+0x61>
  40270a:	b8 00 00 00 00       	mov    $0x0,%eax
  40270f:	84 c0                	test   %al,%al
  402711:	74 4a                	je     40275d <bool std::__lexicographical_compare_impl<int const*, int const*, __gnu_cxx::__ops::_Iter_less_iter>(int const*, int const*, int const*, int const*, __gnu_cxx::__ops::_Iter_less_iter)+0xaf>
  402713:	48 8b 55 e8          	mov    -0x18(%rbp),%rdx
  402717:	48 8b 45 f8          	mov    -0x8(%rbp),%rax
  40271b:	48 89 c6             	mov    %rax,%rsi
  40271e:	48 8d 7d 10          	lea    0x10(%rbp),%rdi
  402722:	e8 07 02 00 00       	callq  40292e <bool __gnu_cxx::__ops::_Iter_less_iter::operator()<int const*, int const*>(int const*, int const*) const>
  402727:	84 c0                	test   %al,%al
  402729:	74 07                	je     402732 <bool std::__lexicographical_compare_impl<int const*, int const*, __gnu_cxx::__ops::_Iter_less_iter>(int const*, int const*, int const*, int const*, __gnu_cxx::__ops::_Iter_less_iter)+0x84>
  40272b:	b8 01 00 00 00       	mov    $0x1,%eax
  402730:	eb 4b                	jmp    40277d <bool std::__lexicographical_compare_impl<int const*, int const*, __gnu_cxx::__ops::_Iter_less_iter>(int const*, int const*, int const*, int const*, __gnu_cxx::__ops::_Iter_less_iter)+0xcf>
  402732:	48 8b 55 f8          	mov    -0x8(%rbp),%rdx
  402736:	48 8b 45 e8          	mov    -0x18(%rbp),%rax
  40273a:	48 89 c6             	mov    %rax,%rsi
  40273d:	48 8d 7d 10          	lea    0x10(%rbp),%rdi
  402741:	e8 e8 01 00 00       	callq  40292e <bool __gnu_cxx::__ops::_Iter_less_iter::operator()<int const*, int const*>(int const*, int const*) const>
  402746:	84 c0                	test   %al,%al
  402748:	74 07                	je     402751 <bool std::__lexicographical_compare_impl<int const*, int const*, __gnu_cxx::__ops::_Iter_less_iter>(int const*, int const*, int const*, int const*, __gnu_cxx::__ops::_Iter_less_iter)+0xa3>
  40274a:	b8 00 00 00 00       	mov    $0x0,%eax
  40274f:	eb 2c                	jmp    40277d <bool std::__lexicographical_compare_impl<int const*, int const*, __gnu_cxx::__ops::_Iter_less_iter>(int const*, int const*, int const*, int const*, __gnu_cxx::__ops::_Iter_less_iter)+0xcf>
  402751:	48 83 45 f8 04       	addq   $0x4,-0x8(%rbp)
  402756:	48 83 45 e8 04       	addq   $0x4,-0x18(%rbp)
  40275b:	eb 85                	jmp    4026e2 <bool std::__lexicographical_compare_impl<int const*, int const*, __gnu_cxx::__ops::_Iter_less_iter>(int const*, int const*, int const*, int const*, __gnu_cxx::__ops::_Iter_less_iter)+0x34>
  40275d:	48 8b 45 f8          	mov    -0x8(%rbp),%rax
  402761:	48 3b 45 f0          	cmp    -0x10(%rbp),%rax
  402765:	75 11                	jne    402778 <bool std::__lexicographical_compare_impl<int const*, int const*, __gnu_cxx::__ops::_Iter_less_iter>(int const*, int const*, int const*, int const*, __gnu_cxx::__ops::_Iter_less_iter)+0xca>
  402767:	48 8b 45 e8          	mov    -0x18(%rbp),%rax
  40276b:	48 3b 45 e0          	cmp    -0x20(%rbp),%rax
  40276f:	74 07                	je     402778 <bool std::__lexicographical_compare_impl<int const*, int const*, __gnu_cxx::__ops::_Iter_less_iter>(int const*, int const*, int const*, int const*, __gnu_cxx::__ops::_Iter_less_iter)+0xca>
  402771:	b8 01 00 00 00       	mov    $0x1,%eax
  402776:	eb 05                	jmp    40277d <bool std::__lexicographical_compare_impl<int const*, int const*, __gnu_cxx::__ops::_Iter_less_iter>(int const*, int const*, int const*, int const*, __gnu_cxx::__ops::_Iter_less_iter)+0xcf>
  402778:	b8 00 00 00 00       	mov    $0x0,%eax
  40277d:	c9                   	leaveq 
  40277e:	c3                   	retq   

000000000040277f <std::_Iter_base<__gnu_cxx::__normal_iterator<int*, std::vector<int, std::allocator<int> > >, true>::_S_base(__gnu_cxx::__normal_iterator<int*, std::vector<int, std::allocator<int> > >)>:
  40277f:	55                   	push   %rbp
  402780:	48 89 e5             	mov    %rsp,%rbp
  402783:	48 83 ec 10          	sub    $0x10,%rsp
  402787:	48 89 7d f0          	mov    %rdi,-0x10(%rbp)
  40278b:	48 8d 45 f0          	lea    -0x10(%rbp),%rax
  40278f:	48 89 c7             	mov    %rax,%rdi
  402792:	e8 bb 01 00 00       	callq  402952 <__gnu_cxx::__normal_iterator<int*, std::vector<int, std::allocator<int> > >::base() const>
  402797:	48 8b 00             	mov    (%rax),%rax
  40279a:	c9                   	leaveq 
  40279b:	c3                   	retq   

000000000040279c <int* std::__copy_move<false, true, std::random_access_iterator_tag>::__copy_m<int>(int const*, int const*, int*)>:
  40279c:	55                   	push   %rbp
  40279d:	48 89 e5             	mov    %rsp,%rbp
  4027a0:	48 83 ec 30          	sub    $0x30,%rsp
  4027a4:	48 89 7d e8          	mov    %rdi,-0x18(%rbp)
  4027a8:	48 89 75 e0          	mov    %rsi,-0x20(%rbp)
  4027ac:	48 89 55 d8          	mov    %rdx,-0x28(%rbp)
  4027b0:	48 8b 55 e0          	mov    -0x20(%rbp),%rdx
  4027b4:	48 8b 45 e8          	mov    -0x18(%rbp),%rax
  4027b8:	48 29 c2             	sub    %rax,%rdx
  4027bb:	48 89 d0             	mov    %rdx,%rax
  4027be:	48 c1 f8 02          	sar    $0x2,%rax
  4027c2:	48 89 45 f8          	mov    %rax,-0x8(%rbp)
  4027c6:	48 83 7d f8 00       	cmpq   $0x0,-0x8(%rbp)
  4027cb:	74 1f                	je     4027ec <int* std::__copy_move<false, true, std::random_access_iterator_tag>::__copy_m<int>(int const*, int const*, int*)+0x50>
  4027cd:	48 8b 45 f8          	mov    -0x8(%rbp),%rax
  4027d1:	48 8d 14 85 00 00 00 	lea    0x0(,%rax,4),%rdx
  4027d8:	00 
  4027d9:	48 8b 4d e8          	mov    -0x18(%rbp),%rcx
  4027dd:	48 8b 45 d8          	mov    -0x28(%rbp),%rax
  4027e1:	48 89 ce             	mov    %rcx,%rsi
  4027e4:	48 89 c7             	mov    %rax,%rdi
  4027e7:	e8 14 e3 ff ff       	callq  400b00 <memmove@plt>
  4027ec:	48 8b 45 f8          	mov    -0x8(%rbp),%rax
  4027f0:	48 8d 14 85 00 00 00 	lea    0x0(,%rax,4),%rdx
  4027f7:	00 
  4027f8:	48 8b 45 d8          	mov    -0x28(%rbp),%rax
  4027fc:	48 01 d0             	add    %rdx,%rax
  4027ff:	c9                   	leaveq 
  402800:	c3                   	retq   

0000000000402801 <std::_Miter_base<int const*>::iterator_type std::__miter_base<int const*>(int const*)>:
  402801:	55                   	push   %rbp
  402802:	48 89 e5             	mov    %rsp,%rbp
  402805:	48 83 ec 10          	sub    $0x10,%rsp
  402809:	48 89 7d f8          	mov    %rdi,-0x8(%rbp)
  40280d:	48 8b 45 f8          	mov    -0x8(%rbp),%rax
  402811:	48 89 c7             	mov    %rax,%rdi
  402814:	e8 47 01 00 00       	callq  402960 <std::_Iter_base<int const*, false>::_S_base(int const*)>
  402819:	c9                   	leaveq 
  40281a:	c3                   	retq   

000000000040281b <int* std::__copy_move_a2<false, int const*, int*>(int const*, int const*, int*)>:
  40281b:	55                   	push   %rbp
  40281c:	48 89 e5             	mov    %rsp,%rbp
  40281f:	41 54                	push   %r12
  402821:	53                   	push   %rbx
  402822:	48 83 ec 20          	sub    $0x20,%rsp
  402826:	48 89 7d e8          	mov    %rdi,-0x18(%rbp)
  40282a:	48 89 75 e0          	mov    %rsi,-0x20(%rbp)
  40282e:	48 89 55 d8          	mov    %rdx,-0x28(%rbp)
  402832:	48 8b 45 d8          	mov    -0x28(%rbp),%rax
  402836:	48 89 c7             	mov    %rax,%rdi
  402839:	e8 fa fc ff ff       	callq  402538 <std::_Niter_base<int*>::iterator_type std::__niter_base<int*>(int*)>
  40283e:	49 89 c4             	mov    %rax,%r12
  402841:	48 8b 45 e0          	mov    -0x20(%rbp),%rax
  402845:	48 89 c7             	mov    %rax,%rdi
  402848:	e8 21 01 00 00       	callq  40296e <std::_Niter_base<int const*>::iterator_type std::__niter_base<int const*>(int const*)>
  40284d:	48 89 c3             	mov    %rax,%rbx
  402850:	48 8b 45 e8          	mov    -0x18(%rbp),%rax
  402854:	48 89 c7             	mov    %rax,%rdi
  402857:	e8 12 01 00 00       	callq  40296e <std::_Niter_base<int const*>::iterator_type std::__niter_base<int const*>(int const*)>
  40285c:	4c 89 e2             	mov    %r12,%rdx
  40285f:	48 89 de             	mov    %rbx,%rsi
  402862:	48 89 c7             	mov    %rax,%rdi
  402865:	e8 80 fc ff ff       	callq  4024ea <int* std::__copy_move_a<false, int const*, int*>(int const*, int const*, int*)>
  40286a:	48 83 c4 20          	add    $0x20,%rsp
  40286e:	5b                   	pop    %rbx
  40286f:	41 5c                	pop    %r12
  402871:	5d                   	pop    %rbp
  402872:	c3                   	retq   

0000000000402873 <__gnu_cxx::__enable_if<std::__is_scalar<int>::__value, int*>::__type std::__fill_n_a<int*, unsigned long, int>(int*, unsigned long, int const&)>:
  402873:	55                   	push   %rbp
  402874:	48 89 e5             	mov    %rsp,%rbp
  402877:	48 89 7d e8          	mov    %rdi,-0x18(%rbp)
  40287b:	48 89 75 e0          	mov    %rsi,-0x20(%rbp)
  40287f:	48 89 55 d8          	mov    %rdx,-0x28(%rbp)
  402883:	48 8b 45 d8          	mov    -0x28(%rbp),%rax
  402887:	8b 00                	mov    (%rax),%eax
  402889:	89 45 f4             	mov    %eax,-0xc(%rbp)
  40288c:	48 8b 45 e0          	mov    -0x20(%rbp),%rax
  402890:	48 89 45 f8          	mov    %rax,-0x8(%rbp)
  402894:	48 83 7d f8 00       	cmpq   $0x0,-0x8(%rbp)
  402899:	74 15                	je     4028b0 <__gnu_cxx::__enable_if<std::__is_scalar<int>::__value, int*>::__type std::__fill_n_a<int*, unsigned long, int>(int*, unsigned long, int const&)+0x3d>
  40289b:	48 8b 45 e8          	mov    -0x18(%rbp),%rax
  40289f:	8b 55 f4             	mov    -0xc(%rbp),%edx
  4028a2:	89 10                	mov    %edx,(%rax)
  4028a4:	48 83 6d f8 01       	subq   $0x1,-0x8(%rbp)
  4028a9:	48 83 45 e8 04       	addq   $0x4,-0x18(%rbp)
  4028ae:	eb e4                	jmp    402894 <__gnu_cxx::__enable_if<std::__is_scalar<int>::__value, int*>::__type std::__fill_n_a<int*, unsigned long, int>(int*, unsigned long, int const&)+0x21>
  4028b0:	48 8b 45 e8          	mov    -0x18(%rbp),%rax
  4028b4:	5d                   	pop    %rbp
  4028b5:	c3                   	retq   

00000000004028b6 <int const* std::__lc_rai<std::random_access_iterator_tag, std::random_access_iterator_tag>::__newlast1<int const*, int const*>(int const*, int const*, int const*, int const*)>:
  4028b6:	55                   	push   %rbp
  4028b7:	48 89 e5             	mov    %rsp,%rbp
  4028ba:	48 89 7d e8          	mov    %rdi,-0x18(%rbp)
  4028be:	48 89 75 e0          	mov    %rsi,-0x20(%rbp)
  4028c2:	48 89 55 d8          	mov    %rdx,-0x28(%rbp)
  4028c6:	48 89 4d d0          	mov    %rcx,-0x30(%rbp)
  4028ca:	48 8b 55 e0          	mov    -0x20(%rbp),%rdx
  4028ce:	48 8b 45 e8          	mov    -0x18(%rbp),%rax
  4028d2:	48 29 c2             	sub    %rax,%rdx
  4028d5:	48 89 d0             	mov    %rdx,%rax
  4028d8:	48 c1 f8 02          	sar    $0x2,%rax
  4028dc:	48 89 45 f0          	mov    %rax,-0x10(%rbp)
  4028e0:	48 8b 55 d0          	mov    -0x30(%rbp),%rdx
  4028e4:	48 8b 45 d8          	mov    -0x28(%rbp),%rax
  4028e8:	48 29 c2             	sub    %rax,%rdx
  4028eb:	48 89 d0             	mov    %rdx,%rax
  4028ee:	48 c1 f8 02          	sar    $0x2,%rax
  4028f2:	48 89 45 f8          	mov    %rax,-0x8(%rbp)
  4028f6:	48 8b 45 f8          	mov    -0x8(%rbp),%rax
  4028fa:	48 3b 45 f0          	cmp    -0x10(%rbp),%rax
  4028fe:	7d 15                	jge    402915 <int const* std::__lc_rai<std::random_access_iterator_tag, std::random_access_iterator_tag>::__newlast1<int const*, int const*>(int const*, int const*, int const*, int const*)+0x5f>
  402900:	48 8b 45 f8          	mov    -0x8(%rbp),%rax
  402904:	48 8d 14 85 00 00 00 	lea    0x0(,%rax,4),%rdx
  40290b:	00 
  40290c:	48 8b 45 e8          	mov    -0x18(%rbp),%rax
  402910:	48 01 d0             	add    %rdx,%rax
  402913:	eb 04                	jmp    402919 <int const* std::__lc_rai<std::random_access_iterator_tag, std::random_access_iterator_tag>::__newlast1<int const*, int const*>(int const*, int const*, int const*, int const*)+0x63>
  402915:	48 8b 45 e0          	mov    -0x20(%rbp),%rax
  402919:	5d                   	pop    %rbp
  40291a:	c3                   	retq   

000000000040291b <bool std::__lc_rai<std::random_access_iterator_tag, std::random_access_iterator_tag>::__cnd2<int const*>(int const*, int const*)>:
  40291b:	55                   	push   %rbp
  40291c:	48 89 e5             	mov    %rsp,%rbp
  40291f:	48 89 7d f8          	mov    %rdi,-0x8(%rbp)
  402923:	48 89 75 f0          	mov    %rsi,-0x10(%rbp)
  402927:	b8 01 00 00 00       	mov    $0x1,%eax
  40292c:	5d                   	pop    %rbp
  40292d:	c3                   	retq   

000000000040292e <bool __gnu_cxx::__ops::_Iter_less_iter::operator()<int const*, int const*>(int const*, int const*) const>:
  40292e:	55                   	push   %rbp
  40292f:	48 89 e5             	mov    %rsp,%rbp
  402932:	48 89 7d f8          	mov    %rdi,-0x8(%rbp)
  402936:	48 89 75 f0          	mov    %rsi,-0x10(%rbp)
  40293a:	48 89 55 e8          	mov    %rdx,-0x18(%rbp)
  40293e:	48 8b 45 f0          	mov    -0x10(%rbp),%rax
  402942:	8b 10                	mov    (%rax),%edx
  402944:	48 8b 45 e8          	mov    -0x18(%rbp),%rax
  402948:	8b 00                	mov    (%rax),%eax
  40294a:	39 c2                	cmp    %eax,%edx
  40294c:	0f 9c c0             	setl   %al
  40294f:	5d                   	pop    %rbp
  402950:	c3                   	retq   
  402951:	90                   	nop

0000000000402952 <__gnu_cxx::__normal_iterator<int*, std::vector<int, std::allocator<int> > >::base() const>:
  402952:	55                   	push   %rbp
  402953:	48 89 e5             	mov    %rsp,%rbp
  402956:	48 89 7d f8          	mov    %rdi,-0x8(%rbp)
  40295a:	48 8b 45 f8          	mov    -0x8(%rbp),%rax
  40295e:	5d                   	pop    %rbp
  40295f:	c3                   	retq   

0000000000402960 <std::_Iter_base<int const*, false>::_S_base(int const*)>:
  402960:	55                   	push   %rbp
  402961:	48 89 e5             	mov    %rsp,%rbp
  402964:	48 89 7d f8          	mov    %rdi,-0x8(%rbp)
  402968:	48 8b 45 f8          	mov    -0x8(%rbp),%rax
  40296c:	5d                   	pop    %rbp
  40296d:	c3                   	retq   

000000000040296e <std::_Niter_base<int const*>::iterator_type std::__niter_base<int const*>(int const*)>:
  40296e:	55                   	push   %rbp
  40296f:	48 89 e5             	mov    %rsp,%rbp
  402972:	48 83 ec 10          	sub    $0x10,%rsp
  402976:	48 89 7d f8          	mov    %rdi,-0x8(%rbp)
  40297a:	48 8b 45 f8          	mov    -0x8(%rbp),%rax
  40297e:	48 89 c7             	mov    %rax,%rdi
  402981:	e8 da ff ff ff       	callq  402960 <std::_Iter_base<int const*, false>::_S_base(int const*)>
  402986:	c9                   	leaveq 
  402987:	c3                   	retq   
  402988:	0f 1f 84 00 00 00 00 	nopl   0x0(%rax,%rax,1)
  40298f:	00 

0000000000402990 <__libc_csu_init>:
  402990:	41 57                	push   %r15
  402992:	41 56                	push   %r14
  402994:	41 89 ff             	mov    %edi,%r15d
  402997:	41 55                	push   %r13
  402999:	41 54                	push   %r12
  40299b:	4c 8d 25 46 24 20 00 	lea    0x202446(%rip),%r12        # 604de8 <__frame_dummy_init_array_entry>
  4029a2:	55                   	push   %rbp
  4029a3:	48 8d 2d 4e 24 20 00 	lea    0x20244e(%rip),%rbp        # 604df8 <__init_array_end>
  4029aa:	53                   	push   %rbx
  4029ab:	49 89 f6             	mov    %rsi,%r14
  4029ae:	49 89 d5             	mov    %rdx,%r13
  4029b1:	4c 29 e5             	sub    %r12,%rbp
  4029b4:	48 83 ec 08          	sub    $0x8,%rsp
  4029b8:	48 c1 fd 03          	sar    $0x3,%rbp
  4029bc:	e8 87 e0 ff ff       	callq  400a48 <_init>
  4029c1:	48 85 ed             	test   %rbp,%rbp
  4029c4:	74 20                	je     4029e6 <__libc_csu_init+0x56>
  4029c6:	31 db                	xor    %ebx,%ebx
  4029c8:	0f 1f 84 00 00 00 00 	nopl   0x0(%rax,%rax,1)
  4029cf:	00 
  4029d0:	4c 89 ea             	mov    %r13,%rdx
  4029d3:	4c 89 f6             	mov    %r14,%rsi
  4029d6:	44 89 ff             	mov    %r15d,%edi
  4029d9:	41 ff 14 dc          	callq  *(%r12,%rbx,8)
  4029dd:	48 83 c3 01          	add    $0x1,%rbx
  4029e1:	48 39 eb             	cmp    %rbp,%rbx
  4029e4:	75 ea                	jne    4029d0 <__libc_csu_init+0x40>
  4029e6:	48 83 c4 08          	add    $0x8,%rsp
  4029ea:	5b                   	pop    %rbx
  4029eb:	5d                   	pop    %rbp
  4029ec:	41 5c                	pop    %r12
  4029ee:	41 5d                	pop    %r13
  4029f0:	41 5e                	pop    %r14
  4029f2:	41 5f                	pop    %r15
  4029f4:	c3                   	retq   
  4029f5:	90                   	nop
  4029f6:	66 2e 0f 1f 84 00 00 	nopw   %cs:0x0(%rax,%rax,1)
  4029fd:	00 00 00 

0000000000402a00 <__libc_csu_fini>:
  402a00:	f3 c3                	repz retq 

Disassembly of section .fini:

0000000000402a04 <_fini>:
  402a04:	48 83 ec 08          	sub    $0x8,%rsp
  402a08:	48 83 c4 08          	add    $0x8,%rsp
  402a0c:	c3                   	retq   
